MPLINK 4.40, Linker
Linker Map File - Created Thu Nov 27 17:56:30 2014

                                 Section Info
                  Section       Type    Address   Location Size(Bytes)
                ---------  ---------  ---------  ---------  ---------
               _entry_scn       code   0x000000    program   0x000006
           .code___init.o       code   0x000006    program   0x000002
                 high_isr       code   0x000008    program   0x00000a
                  low_isr       code   0x000018    program   0x000270
                   .cinit    romdata   0x000288    program   0x00000e
    .code_config_editor.o       code   0x000296    program   0x001670
             .stringtable    romdata   0x001906    program   0x00125b
          .idata_menu.o_i    romdata   0x002b61    program   0x000000
    .idata_configbits.o_i    romdata   0x002b61    program   0x000000
    .idata_rf_manager.o_i    romdata   0x002b61    program   0x000000
    .romdata_rf_manager.o    romdata   0x002b61    program   0x000000
           .romdata_crc.o    romdata   0x002b61    program   0x000000
     .idata_backlight.o_i    romdata   0x002b61    program   0x000000
           .idata_lcd.o_i    romdata   0x002b61    program   0x000000
     .romdata_languages.o    romdata   0x002b61    program   0x000000
.idata_config_iteminfo.o_i    romdata   0x002b61    program   0x000000
     .romdata_uart_fifo.o    romdata   0x002b61    program   0x000000
       .romdata_helpers.o    romdata   0x002b61    program   0x000000
          .idata_uart.o_i    romdata   0x002b61    program   0x000000
.romdata_config_manager.o    romdata   0x002b61    program   0x000000
     .idata_interrupt.o_i    romdata   0x002b61    program   0x000000
       .idata_helpers.o_i    romdata   0x002b61    program   0x000000
           .romdata_adc.o    romdata   0x002b61    program   0x000000
          .romdata_main.o    romdata   0x002b61    program   0x000000
      .idata_fxd3232u.o_i    romdata   0x002b61    program   0x000000
      .romdata_fxd3232u.o    romdata   0x002b61    program   0x000000
              .code_lcd.o       code   0x002b62    program   0x000ea8
       .code_configbits.o       code   0x002b62    program   0x000000
         .code_menudata.o       code   0x002b62    program   0x000000
    .code_power_manager.o       code   0x003a0a    program   0x000a88
           .code_logger.o       code   0x004492    program   0x0008b4
       .code_rf_manager.o       code   0x004d46    program   0x0007e6
    .code_config_memory.o       code   0x00552c    program   0x00067c
      .code_infodisplay.o       code   0x005ba8    program   0x000534
             .code_uart.o       code   0x0060dc    program   0x00043e
             .code_time.o       code   0x00651a    program   0x000430
             .code_menu.o       code   0x00694a    program   0x0003ae
        .code_backlight.o       code   0x006cf8    program   0x00031a
.romdata_languages_strings.o    romdata   0x007012    program   0x0002c0
        .code_uart_fifo.o       code   0x0072d2    program   0x000292
          .code_helpers.o       code   0x007564    program   0x00026c
          .code_encoder.o       code   0x0077d0    program   0x00025e
.romdata_config_iteminfo.o    romdata   0x007a2e    program   0x0001d7
    .idata_tip_detect.o_i    romdata   0x007c05    program   0x000000
    .romdata_tip_detect.o    romdata   0x007c05    program   0x000000
        .romdata_logger.o    romdata   0x007c05    program   0x000000
.idata_languages_strings.o_i    romdata   0x007c05    program   0x000000
 .romdata_power_manager.o    romdata   0x007c05    program   0x000000
     .romdata_interrupt.o    romdata   0x007c05    program   0x000000
          .idata_main.o_i    romdata   0x007c05    program   0x000000
        .romdata___init.o    romdata   0x007c05    program   0x000000
     .idata_infoicons.o_i    romdata   0x007c05    program   0x000000
 .idata_power_manager.o_i    romdata   0x007c05    program   0x000000
 .idata_config_memory.o_i    romdata   0x007c05    program   0x000000
           .idata_adc.o_i    romdata   0x007c05    program   0x000000
    .romdata_configbits.o    romdata   0x007c05    program   0x000000
      .romdata_hardware.o    romdata   0x007c05    program   0x000000
 .idata_config_editor.o_i    romdata   0x007c05    program   0x000000
        .idata_eeprom.o_i    romdata   0x007c05    program   0x000000
       .romdata_encoder.o    romdata   0x007c05    program   0x000000
      .idata_hardware.o_i    romdata   0x007c05    program   0x000000
 .romdata_config_editor.o    romdata   0x007c05    program   0x000000
.code_languages_strings.o       code   0x007c06    program   0x000000
           .code_eeprom.o       code   0x007c06    program   0x0001a0
  .code_config_iteminfo.o       code   0x007c06    program   0x000000
              .code_adc.o       code   0x007da6    program   0x00012a
   .code_config_manager.o       code   0x007ed0    program   0x000120
              .code_crc.o       code   0x007ff0    program   0x0000dc
             .code_main.o       code   0x0080cc    program   0x0000da
        .code_languages.o       code   0x0081a6    program   0x0000a8
               _cinit_scn       code   0x00824e    program   0x00009e
                     PROG       code   0x0082ec    program   0x000096
       .code_tip_detect.o       code   0x008382    program   0x000080
          .code_fxm3232.o       code   0x008402    program   0x000070
         .code_fxd3232u.o       code   0x008472    program   0x000048
     .romdata_backlight.o    romdata   0x0084ba    program   0x000040
         .code_hardware.o       code   0x0084fa    program   0x000038
          .romdata_uart.o    romdata   0x008532    program   0x00002c
     .romdata_infoicons.o    romdata   0x00855e    program   0x00002a
                    .code       code   0x008588    program   0x000020
      .romdata_menudata.o    romdata   0x0085a8    program   0x00001f
          .romdata_time.o    romdata   0x0085c7    program   0x000000
     .idata_uart_fifo.o_i    romdata   0x0085c7    program   0x000000
 .romdata_config_memory.o    romdata   0x0085c7    program   0x000000
.idata_config_manager.o_i    romdata   0x0085c7    program   0x000000
       .idata_fxm3232.o_i    romdata   0x0085c7    program   0x000000
       .romdata_fxm3232.o    romdata   0x0085c7    program   0x000000
        .idata___init.o_i    romdata   0x0085c7    program   0x000000
         .romdata_c018i.o    romdata   0x0085c7    program   0x000000
         .idata_c018i.o_i    romdata   0x0085c7    program   0x000000
   .romdata_infodisplay.o    romdata   0x0085c7    program   0x000000
   .idata_infodisplay.o_i    romdata   0x0085c7    program   0x000000
     .idata_languages.o_i    romdata   0x0085c7    program   0x000000
           .romdata_lcd.o    romdata   0x0085c7    program   0x000000
        .idata_logger.o_i    romdata   0x0085c7    program   0x000000
          .idata_time.o_i    romdata   0x0085c7    program   0x000000
           .idata_crc.o_i    romdata   0x0085c7    program   0x000000
        .romdata_eeprom.o    romdata   0x0085c7    program   0x000000
          .romdata_menu.o    romdata   0x0085c7    program   0x000000
      .idata_menudata.o_i    romdata   0x0085c7    program   0x000000
            .code_c018i.o       code   0x0085c8    program   0x000000
        .code_infoicons.o       code   0x0085c8    program   0x000000
             _startup_scn       code   0x0085c8    program   0x00001c
        .code_interrupt.o       code   0x0085e4    program   0x00000c
       .idata_encoder.o_i    romdata   0x0085f0    program   0x000010
.config_300001_configbits.o    romdata   0x300001    program   0x000001
.config_300002_configbits.o    romdata   0x300002    program   0x000001
.config_300003_configbits.o    romdata   0x300003    program   0x000001
.config_300005_configbits.o    romdata   0x300005    program   0x000001
.config_300006_configbits.o    romdata   0x300006    program   0x000001
.config_300008_configbits.o    romdata   0x300008    program   0x000001
.config_300009_configbits.o    romdata   0x300009    program   0x000001
.config_30000a_configbits.o    romdata   0x30000a    program   0x000001
.config_30000b_configbits.o    romdata   0x30000b    program   0x000001
.config_30000c_configbits.o    romdata   0x30000c    program   0x000001
.config_30000d_configbits.o    romdata   0x30000d    program   0x000001
             _RF_MAN_CALC      udata   0x000000       data   0x000023
                MATH_DATA      udata   0x000023       data   0x000014
           _RENCODER_DATA      udata   0x000037       data   0x00000c
               _TIME_DATA      udata   0x000043       data   0x00000a
                 _BL_DATA      udata   0x00004d       data   0x000009
               _FIFO_DATA      udata   0x000056       data   0x000006
                _IRQ_DATA      udata   0x00005c       data   0x000005
                 .tmpdata      udata   0x000061       data   0x000005
                 _CRCDATA      udata   0x000066       data   0x000003
              low_isr_tmp      udata   0x000069       data   0x000002
         _TIP_DETECT_DATA      udata   0x00006b       data   0x000001
   .udata_config_editor.o      udata   0x000080       data   0x000073
           .udata_c018i.o      udata   0x0000f3       data   0x00000a
         .udata_encoder.o      udata   0x0000fd       data   0x000003
           uart_fifo_data      udata   0x000100       data   0x000100
   .udata_config_memory.o      udata   0x000200       data   0x00008e
             .udata_adc.o      udata   0x00028e       data   0x00006e
       .udata_uart_fifo.o      udata   0x0002fc       data   0x000004
         .udata_helpers.o      udata   0x000300       data   0x00000e
       .udata_languages.o      udata   0x00030e       data   0x000007
          .udata_logger.o      udata   0x000315       data   0x000005
          .udata_eeprom.o      udata   0x00031a       data   0x000005
      .udata_rf_manager.o      udata   0x00031f       data   0x000004
        .udata_hardware.o      udata   0x000323       data   0x000004
  .udata_config_manager.o      udata   0x000327       data   0x000003
            .udata_uart.o      udata   0x00032a       data   0x000002
            .udata_main.o      udata   0x00032c       data   0x000002
      .udata_tip_detect.o      udata   0x00032e       data   0x000001
            .idata_menu.o      idata   0x00032f       data   0x000000
        .udata_menudata.o      udata   0x00032f       data   0x000000
        .idata_menudata.o      idata   0x00032f       data   0x000000
          .idata_logger.o      idata   0x00032f       data   0x000000
   .idata_power_manager.o      idata   0x00032f       data   0x000000
      .idata_rf_manager.o      idata   0x00032f       data   0x000000
          .idata___init.o      idata   0x00032f       data   0x000000
          .udata___init.o      udata   0x00032f       data   0x000000
            .udata_time.o      udata   0x00032f       data   0x000000
            .idata_time.o      idata   0x00032f       data   0x000000
         .idata_fxm3232.o      idata   0x00032f       data   0x000000
      .idata_tip_detect.o      idata   0x00032f       data   0x000000
       .idata_uart_fifo.o      idata   0x00032f       data   0x000000
         .udata_fxm3232.o      udata   0x00032f       data   0x000000
        .idata_fxd3232u.o      idata   0x00032f       data   0x000000
        .udata_fxd3232u.o      udata   0x00032f       data   0x000000
            .idata_main.o      idata   0x00032f       data   0x000000
            .idata_uart.o      idata   0x00032f       data   0x000000
           .idata_c018i.o      idata   0x00032f       data   0x000000
             .idata_adc.o      idata   0x00032f       data   0x000000
  .idata_config_manager.o      idata   0x00032f       data   0x000000
   .idata_config_memory.o      idata   0x00032f       data   0x000000
 .udata_config_iteminfo.o      udata   0x00032f       data   0x000000
 .idata_config_iteminfo.o      idata   0x00032f       data   0x000000
   .idata_config_editor.o      idata   0x00032f       data   0x000000
             .udata_crc.o      udata   0x00032f       data   0x000000
             .idata_crc.o      idata   0x00032f       data   0x000000
          .idata_eeprom.o      idata   0x00032f       data   0x000000
        .idata_hardware.o      idata   0x00032f       data   0x000000
      .udata_configbits.o      udata   0x00032f       data   0x000000
      .idata_configbits.o      idata   0x00032f       data   0x000000
         .idata_helpers.o      idata   0x00032f       data   0x000000
     .idata_infodisplay.o      idata   0x00032f       data   0x000000
       .udata_infoicons.o      udata   0x00032f       data   0x000000
       .idata_infoicons.o      idata   0x00032f       data   0x000000
       .udata_interrupt.o      udata   0x00032f       data   0x000000
       .idata_backlight.o      idata   0x00032f       data   0x000000
       .idata_interrupt.o      idata   0x00032f       data   0x000000
       .idata_languages.o      idata   0x00032f       data   0x000000
.udata_languages_strings.o      udata   0x00032f       data   0x000000
.idata_languages_strings.o      idata   0x00032f       data   0x000000
       .udata_backlight.o      udata   0x00032f       data   0x000000
             .idata_lcd.o      idata   0x00032f       data   0x000000
                   .stack      udata   0x000e00       data   0x000100
            .udata_menu.o      udata   0x000f00       data   0x000038
             .udata_lcd.o      udata   0x000f38       data   0x00001d
   .udata_power_manager.o      udata   0x000f55       data   0x000011
         .idata_encoder.o      idata   0x000f66       data   0x000010
     .udata_infodisplay.o      udata   0x000f76       data   0x00000a
            SFR_UNBANKED0      udata   0x000f80       data   0x000080



                              Program Memory Usage 
                               Start         End      
                           ---------   ---------      
                            0x000000    0x000011      
                            0x000018    0x002b60      
                            0x002b62    0x007c04      
                            0x007c06    0x0085c6      
                            0x0085c8    0x0085ff      
                            0x300001    0x300003      
                            0x300005    0x300006      
                            0x300008    0x30000d      
            34306 out of 66584 program addresses used, program memory utilization is 51%



                              Symbols - Sorted by Name
                     Name    Address   Location    Storage File                     
                ---------  ---------  ---------  --------- ---------                
                 FXD3232U   0x008472    program     extern C:\MCC18\v3_39\src\traditional\math\fxd3232u.c
                 FXM1616S   0x0082ec    program     extern C:\MCC18\v3_39\src\traditional\math\fxm1616s.asm
                 FXM1616U   0x008346    program     extern C:\MCC18\v3_39\src\traditional\math\fxm1616u.asm
                  FXM3232   0x008402    program     extern C:\MCC18\v3_39\src\traditional\math\fxm3232.c
               TSIGN1616A   0x008338    program     static C:\MCC18\v3_39\src\traditional\math\fxm1616s.asm
         ___else_lbl00007   0x007cbe    program     static                          
         ___else_lbl00013   0x007d1c    program     static                          
          ___for_lbl00001   0x006118    program     static                          
          ___for_lbl00001   0x002b76    program     static                          
          ___for_lbl00002   0x002b80    program     static                          
          ___for_lbl00002   0x00612c    program     static                          
          ___for_lbl00003   0x0060fc    program     static                          
          ___for_lbl00003   0x002b68    program     static                          
          ___for_lbl00005   0x002b96    program     static                          
          ___for_lbl00006   0x002ba0    program     static                          
          ___for_lbl00007   0x002b88    program     static                          
          ___for_lbl00013   0x002cc0    program     static                          
          ___for_lbl00014   0x002cc6    program     static                          
          ___for_lbl00014   0x007d94    program     static                          
          ___for_lbl00015   0x007d9e    program     static                          
          ___for_lbl00015   0x002ca6    program     static                          
          ___for_lbl00019   0x007d32    program     static                          
          ___for_lbl00030   0x007556    program     static                          
          ___for_lbl00031   0x00755c    program     static                          
          ___for_lbl00034   0x007508    program     static                          
           ___if_lbl00006   0x007cc2    program     static                          
           ___if_lbl00008   0x007cf6    program     static                          
           ___if_lbl00012   0x007d20    program     static                          
           ___if_lbl00016   0x007d8a    program     static                          
       ___return_lbl00000   0x0084b8    program     static                          
       ___return_lbl00000   0x002b80    program     static                          
       ___return_lbl00000   0x006130    program     static                          
       ___return_lbl00000   0x000004    program     static                          
       ___return_lbl00000   0x007566    program     static                          
       ___return_lbl00000   0x008530    program     static                          
       ___return_lbl00000   0x008470    program     static                          
       ___return_lbl00001   0x0085e2    program     static                          
       ___return_lbl00001   0x000010    program     static                          
       ___return_lbl00001   0x00805a    program     static                          
       ___return_lbl00002   0x0082ea    program     static                          
       ___return_lbl00004   0x007358    program     static                          
       ___return_lbl00004   0x002ba0    program     static                          
       ___return_lbl00005   0x007d00    program     static                          
       ___return_lbl00007   0x0073be    program     static                          
       ___return_lbl00010   0x002cdc    program     static                          
       ___return_lbl00011   0x007d9e    program     static                          
       ___return_lbl00012   0x007428    program     static                          
       ___return_lbl00029   0x00755c    program     static                          
        ___while_lbl00001   0x0084fe    program     static                          
        ___while_lbl00002   0x008506    program     static                          
        ___while_lbl00005   0x00732a    program     static                          
        ___while_lbl00006   0x00733e    program     static                          
        ___while_lbl00008   0x007368    program     static                          
        ___while_lbl00009   0x0073be    program     static                          
        ___while_lbl00009   0x007cf8    program     static                          
        ___while_lbl00010   0x007378    program     static                          
        ___while_lbl00010   0x007d00    program     static                          
        ___while_lbl00011   0x002c16    program     static                          
        ___while_lbl00011   0x00738c    program     static                          
        ___while_lbl00012   0x002c40    program     static                          
        ___while_lbl00013   0x0073ce    program     static                          
        ___while_lbl00014   0x007428    program     static                          
        ___while_lbl00015   0x0073e0    program     static                          
        ___while_lbl00016   0x0073f4    program     static                          
        ___while_lbl00017   0x007d8c    program     static                          
        ___while_lbl00018   0x007d94    program     static                          
        ___while_lbl00032   0x007512    program     static                          
        ___while_lbl00033   0x007526    program     static                          
               __config_0   0x300001    program     static /storage/PicStuff/RFSupply/hardware/configbits.c
               __config_1   0x300002    program     static /storage/PicStuff/RFSupply/hardware/configbits.c
              __config_10   0x30000d    program     static /storage/PicStuff/RFSupply/hardware/configbits.c
               __config_2   0x300003    program     static /storage/PicStuff/RFSupply/hardware/configbits.c
               __config_3   0x300005    program     static /storage/PicStuff/RFSupply/hardware/configbits.c
               __config_4   0x300006    program     static /storage/PicStuff/RFSupply/hardware/configbits.c
               __config_5   0x300008    program     static /storage/PicStuff/RFSupply/hardware/configbits.c
               __config_6   0x300009    program     static /storage/PicStuff/RFSupply/hardware/configbits.c
               __config_7   0x30000a    program     static /storage/PicStuff/RFSupply/hardware/configbits.c
               __config_8   0x30000b    program     static /storage/PicStuff/RFSupply/hardware/configbits.c
               __config_9   0x30000c    program     static /storage/PicStuff/RFSupply/hardware/configbits.c
                   __init   0x000006    program     extern C:\MCC18\v3_39\src\traditional\stdclib\__init.c
               __string_0   0x00192d    program     static /storage/PicStuff/RFSupply/config_manager/config_editor.c
               __string_0   0x002a52    program     static /storage/PicStuff/RFSupply/languages/languages_strings.c
               __string_0   0x002a7e    program     static /storage/PicStuff/RFSupply/lcd/lcd.c
               __string_0   0x001962    program     static /storage/PicStuff/RFSupply/languages/languages.c
               __string_0   0x002b1f    program     static /storage/PicStuff/RFSupply/logger/logger.c
               __string_0   0x001917    program     static /storage/PicStuff/RFSupply/config_manager/config_memory.c
               __string_0   0x001951    program     static /storage/PicStuff/RFSupply/infodisplay/infodisplay.c
               __string_0   0x002b5c    program     static /storage/PicStuff/RFSupply/uart/uart.c
               __string_1   0x001948    program     static /storage/PicStuff/RFSupply/infodisplay/infodisplay.c
               __string_1   0x002b57    program     static /storage/PicStuff/RFSupply/uart/uart.c
               __string_1   0x001906    program     static /storage/PicStuff/RFSupply/config_manager/config_memory.c
               __string_1   0x002b1a    program     static /storage/PicStuff/RFSupply/logger/logger.c
               __string_1   0x002a6d    program     static /storage/PicStuff/RFSupply/lcd/lcd.c
               __string_1   0x002a4a    program     static /storage/PicStuff/RFSupply/languages/languages_strings.c
               __string_1   0x00192b    program     static /storage/PicStuff/RFSupply/config_manager/config_editor.c
              __string_10   0x002b22    program     static /storage/PicStuff/RFSupply/uart/uart.c
              __string_10   0x002aeb    program     static /storage/PicStuff/RFSupply/logger/logger.c
              __string_10   0x0029b9    program     static /storage/PicStuff/RFSupply/languages/languages_strings.c
             __string_100   0x00250b    program     static /storage/PicStuff/RFSupply/languages/languages_strings.c
             __string_101   0x002504    program     static /storage/PicStuff/RFSupply/languages/languages_strings.c
             __string_102   0x0024fd    program     static /storage/PicStuff/RFSupply/languages/languages_strings.c
             __string_103   0x0024f0    program     static /storage/PicStuff/RFSupply/languages/languages_strings.c
             __string_104   0x0024e7    program     static /storage/PicStuff/RFSupply/languages/languages_strings.c
             __string_105   0x0024df    program     static /storage/PicStuff/RFSupply/languages/languages_strings.c
             __string_106   0x0024d4    program     static /storage/PicStuff/RFSupply/languages/languages_strings.c
             __string_107   0x0024ca    program     static /storage/PicStuff/RFSupply/languages/languages_strings.c
             __string_108   0x0024c2    program     static /storage/PicStuff/RFSupply/languages/languages_strings.c
             __string_109   0x0024b1    program     static /storage/PicStuff/RFSupply/languages/languages_strings.c
              __string_11   0x002ae8    program     static /storage/PicStuff/RFSupply/logger/logger.c
              __string_11   0x0029a1    program     static /storage/PicStuff/RFSupply/languages/languages_strings.c
             __string_110   0x0024a2    program     static /storage/PicStuff/RFSupply/languages/languages_strings.c
             __string_111   0x002496    program     static /storage/PicStuff/RFSupply/languages/languages_strings.c
             __string_112   0x002485    program     static /storage/PicStuff/RFSupply/languages/languages_strings.c
             __string_113   0x002474    program     static /storage/PicStuff/RFSupply/languages/languages_strings.c
             __string_114   0x002468    program     static /storage/PicStuff/RFSupply/languages/languages_strings.c
             __string_115   0x00245b    program     static /storage/PicStuff/RFSupply/languages/languages_strings.c
             __string_116   0x002452    program     static /storage/PicStuff/RFSupply/languages/languages_strings.c
             __string_117   0x002448    program     static /storage/PicStuff/RFSupply/languages/languages_strings.c
             __string_118   0x00243c    program     static /storage/PicStuff/RFSupply/languages/languages_strings.c
             __string_119   0x00242f    program     static /storage/PicStuff/RFSupply/languages/languages_strings.c
              __string_12   0x002ae6    program     static /storage/PicStuff/RFSupply/logger/logger.c
              __string_12   0x002993    program     static /storage/PicStuff/RFSupply/languages/languages_strings.c
             __string_120   0x002423    program     static /storage/PicStuff/RFSupply/languages/languages_strings.c
             __string_121   0x002417    program     static /storage/PicStuff/RFSupply/languages/languages_strings.c
             __string_122   0x002406    program     static /storage/PicStuff/RFSupply/languages/languages_strings.c
             __string_123   0x002400    program     static /storage/PicStuff/RFSupply/languages/languages_strings.c
             __string_124   0x0023f0    program     static /storage/PicStuff/RFSupply/languages/languages_strings.c
             __string_125   0x0023df    program     static /storage/PicStuff/RFSupply/languages/languages_strings.c
             __string_126   0x0023cf    program     static /storage/PicStuff/RFSupply/languages/languages_strings.c
             __string_127   0x0023be    program     static /storage/PicStuff/RFSupply/languages/languages_strings.c
             __string_128   0x0023ae    program     static /storage/PicStuff/RFSupply/languages/languages_strings.c
             __string_129   0x00239d    program     static /storage/PicStuff/RFSupply/languages/languages_strings.c
              __string_13   0x002ae4    program     static /storage/PicStuff/RFSupply/logger/logger.c
              __string_13   0x002975    program     static /storage/PicStuff/RFSupply/languages/languages_strings.c
             __string_130   0x00238d    program     static /storage/PicStuff/RFSupply/languages/languages_strings.c
             __string_131   0x00237e    program     static /storage/PicStuff/RFSupply/languages/languages_strings.c
             __string_132   0x00236d    program     static /storage/PicStuff/RFSupply/languages/languages_strings.c
             __string_133   0x00235f    program     static /storage/PicStuff/RFSupply/languages/languages_strings.c
             __string_134   0x002354    program     static /storage/PicStuff/RFSupply/languages/languages_strings.c
             __string_135   0x002345    program     static /storage/PicStuff/RFSupply/languages/languages_strings.c
             __string_136   0x002334    program     static /storage/PicStuff/RFSupply/languages/languages_strings.c
             __string_137   0x002323    program     static /storage/PicStuff/RFSupply/languages/languages_strings.c
             __string_138   0x002312    program     static /storage/PicStuff/RFSupply/languages/languages_strings.c
             __string_139   0x002302    program     static /storage/PicStuff/RFSupply/languages/languages_strings.c
              __string_14   0x002adc    program     static /storage/PicStuff/RFSupply/logger/logger.c
              __string_14   0x002955    program     static /storage/PicStuff/RFSupply/languages/languages_strings.c
             __string_140   0x0022f4    program     static /storage/PicStuff/RFSupply/languages/languages_strings.c
             __string_141   0x0022e8    program     static /storage/PicStuff/RFSupply/languages/languages_strings.c
             __string_142   0x0022d7    program     static /storage/PicStuff/RFSupply/languages/languages_strings.c
             __string_143   0x0022c6    program     static /storage/PicStuff/RFSupply/languages/languages_strings.c
             __string_144   0x0022b6    program     static /storage/PicStuff/RFSupply/languages/languages_strings.c
             __string_145   0x0022a5    program     static /storage/PicStuff/RFSupply/languages/languages_strings.c
             __string_146   0x002294    program     static /storage/PicStuff/RFSupply/languages/languages_strings.c
             __string_147   0x002284    program     static /storage/PicStuff/RFSupply/languages/languages_strings.c
             __string_148   0x002274    program     static /storage/PicStuff/RFSupply/languages/languages_strings.c
             __string_149   0x00226b    program     static /storage/PicStuff/RFSupply/languages/languages_strings.c
              __string_15   0x002938    program     static /storage/PicStuff/RFSupply/languages/languages_strings.c
              __string_15   0x002ad2    program     static /storage/PicStuff/RFSupply/logger/logger.c
             __string_150   0x002263    program     static /storage/PicStuff/RFSupply/languages/languages_strings.c
             __string_151   0x00225a    program     static /storage/PicStuff/RFSupply/languages/languages_strings.c
             __string_152   0x002249    program     static /storage/PicStuff/RFSupply/languages/languages_strings.c
             __string_153   0x002238    program     static /storage/PicStuff/RFSupply/languages/languages_strings.c
             __string_154   0x002228    program     static /storage/PicStuff/RFSupply/languages/languages_strings.c
             __string_155   0x002218    program     static /storage/PicStuff/RFSupply/languages/languages_strings.c
             __string_156   0x002207    program     static /storage/PicStuff/RFSupply/languages/languages_strings.c
             __string_157   0x0021fb    program     static /storage/PicStuff/RFSupply/languages/languages_strings.c
             __string_158   0x0021eb    program     static /storage/PicStuff/RFSupply/languages/languages_strings.c
             __string_159   0x0021db    program     static /storage/PicStuff/RFSupply/languages/languages_strings.c
              __string_16   0x002919    program     static /storage/PicStuff/RFSupply/languages/languages_strings.c
              __string_16   0x002a8f    program     static /storage/PicStuff/RFSupply/logger/logger.c
             __string_160   0x0021ca    program     static /storage/PicStuff/RFSupply/languages/languages_strings.c
             __string_161   0x0021bc    program     static /storage/PicStuff/RFSupply/languages/languages_strings.c
             __string_162   0x0021ad    program     static /storage/PicStuff/RFSupply/languages/languages_strings.c
             __string_163   0x0021a5    program     static /storage/PicStuff/RFSupply/languages/languages_strings.c
             __string_164   0x002190    program     static /storage/PicStuff/RFSupply/languages/languages_strings.c
             __string_165   0x00217f    program     static /storage/PicStuff/RFSupply/languages/languages_strings.c
             __string_166   0x002170    program     static /storage/PicStuff/RFSupply/languages/languages_strings.c
             __string_167   0x00215d    program     static /storage/PicStuff/RFSupply/languages/languages_strings.c
             __string_168   0x002156    program     static /storage/PicStuff/RFSupply/languages/languages_strings.c
             __string_169   0x00214a    program     static /storage/PicStuff/RFSupply/languages/languages_strings.c
              __string_17   0x002903    program     static /storage/PicStuff/RFSupply/languages/languages_strings.c
             __string_170   0x00212f    program     static /storage/PicStuff/RFSupply/languages/languages_strings.c
             __string_171   0x002116    program     static /storage/PicStuff/RFSupply/languages/languages_strings.c
             __string_172   0x0020f8    program     static /storage/PicStuff/RFSupply/languages/languages_strings.c
             __string_173   0x0020d9    program     static /storage/PicStuff/RFSupply/languages/languages_strings.c
             __string_174   0x0020c2    program     static /storage/PicStuff/RFSupply/languages/languages_strings.c
             __string_175   0x0020a0    program     static /storage/PicStuff/RFSupply/languages/languages_strings.c
             __string_176   0x00207d    program     static /storage/PicStuff/RFSupply/languages/languages_strings.c
             __string_177   0x002058    program     static /storage/PicStuff/RFSupply/languages/languages_strings.c
             __string_178   0x002032    program     static /storage/PicStuff/RFSupply/languages/languages_strings.c
             __string_179   0x002016    program     static /storage/PicStuff/RFSupply/languages/languages_strings.c
              __string_18   0x0028ee    program     static /storage/PicStuff/RFSupply/languages/languages_strings.c
             __string_180   0x001ff9    program     static /storage/PicStuff/RFSupply/languages/languages_strings.c
             __string_181   0x001fdb    program     static /storage/PicStuff/RFSupply/languages/languages_strings.c
             __string_182   0x001fcd    program     static /storage/PicStuff/RFSupply/languages/languages_strings.c
             __string_183   0x001fbb    program     static /storage/PicStuff/RFSupply/languages/languages_strings.c
             __string_184   0x001fa4    program     static /storage/PicStuff/RFSupply/languages/languages_strings.c
             __string_185   0x001f91    program     static /storage/PicStuff/RFSupply/languages/languages_strings.c
             __string_186   0x001f7b    program     static /storage/PicStuff/RFSupply/languages/languages_strings.c
             __string_187   0x001f6d    program     static /storage/PicStuff/RFSupply/languages/languages_strings.c
             __string_188   0x001f60    program     static /storage/PicStuff/RFSupply/languages/languages_strings.c
             __string_189   0x001f4d    program     static /storage/PicStuff/RFSupply/languages/languages_strings.c
              __string_19   0x0028d7    program     static /storage/PicStuff/RFSupply/languages/languages_strings.c
             __string_190   0x001f43    program     static /storage/PicStuff/RFSupply/languages/languages_strings.c
             __string_191   0x001f30    program     static /storage/PicStuff/RFSupply/languages/languages_strings.c
             __string_192   0x001f11    program     static /storage/PicStuff/RFSupply/languages/languages_strings.c
             __string_193   0x001ef6    program     static /storage/PicStuff/RFSupply/languages/languages_strings.c
             __string_194   0x001edc    program     static /storage/PicStuff/RFSupply/languages/languages_strings.c
             __string_195   0x001ed8    program     static /storage/PicStuff/RFSupply/languages/languages_strings.c
             __string_196   0x001ed0    program     static /storage/PicStuff/RFSupply/languages/languages_strings.c
             __string_197   0x001eca    program     static /storage/PicStuff/RFSupply/languages/languages_strings.c
             __string_198   0x001ec0    program     static /storage/PicStuff/RFSupply/languages/languages_strings.c
             __string_199   0x001ebb    program     static /storage/PicStuff/RFSupply/languages/languages_strings.c
               __string_2   0x002b52    program     static /storage/PicStuff/RFSupply/uart/uart.c
               __string_2   0x00193f    program     static /storage/PicStuff/RFSupply/infodisplay/infodisplay.c
               __string_2   0x002a35    program     static /storage/PicStuff/RFSupply/languages/languages_strings.c
               __string_2   0x002a64    program     static /storage/PicStuff/RFSupply/lcd/lcd.c
               __string_2   0x001928    program     static /storage/PicStuff/RFSupply/config_manager/config_editor.c
               __string_2   0x002b15    program     static /storage/PicStuff/RFSupply/logger/logger.c
              __string_20   0x0028cb    program     static /storage/PicStuff/RFSupply/languages/languages_strings.c
             __string_200   0x001eb1    program     static /storage/PicStuff/RFSupply/languages/languages_strings.c
             __string_201   0x001ea1    program     static /storage/PicStuff/RFSupply/languages/languages_strings.c
             __string_202   0x001e90    program     static /storage/PicStuff/RFSupply/languages/languages_strings.c
             __string_203   0x001e80    program     static /storage/PicStuff/RFSupply/languages/languages_strings.c
             __string_204   0x001e6f    program     static /storage/PicStuff/RFSupply/languages/languages_strings.c
             __string_205   0x001e68    program     static /storage/PicStuff/RFSupply/languages/languages_strings.c
             __string_206   0x001e5d    program     static /storage/PicStuff/RFSupply/languages/languages_strings.c
             __string_207   0x001e54    program     static /storage/PicStuff/RFSupply/languages/languages_strings.c
             __string_208   0x001e4a    program     static /storage/PicStuff/RFSupply/languages/languages_strings.c
             __string_209   0x001e40    program     static /storage/PicStuff/RFSupply/languages/languages_strings.c
              __string_21   0x0028bc    program     static /storage/PicStuff/RFSupply/languages/languages_strings.c
             __string_210   0x001e30    program     static /storage/PicStuff/RFSupply/languages/languages_strings.c
             __string_211   0x001e20    program     static /storage/PicStuff/RFSupply/languages/languages_strings.c
             __string_212   0x001e17    program     static /storage/PicStuff/RFSupply/languages/languages_strings.c
             __string_213   0x001e0a    program     static /storage/PicStuff/RFSupply/languages/languages_strings.c
             __string_214   0x001df9    program     static /storage/PicStuff/RFSupply/languages/languages_strings.c
             __string_215   0x001ded    program     static /storage/PicStuff/RFSupply/languages/languages_strings.c
             __string_216   0x001dde    program     static /storage/PicStuff/RFSupply/languages/languages_strings.c
             __string_217   0x001dce    program     static /storage/PicStuff/RFSupply/languages/languages_strings.c
             __string_218   0x001dc3    program     static /storage/PicStuff/RFSupply/languages/languages_strings.c
             __string_219   0x001db2    program     static /storage/PicStuff/RFSupply/languages/languages_strings.c
              __string_22   0x0028b0    program     static /storage/PicStuff/RFSupply/languages/languages_strings.c
             __string_220   0x001da3    program     static /storage/PicStuff/RFSupply/languages/languages_strings.c
             __string_221   0x001d92    program     static /storage/PicStuff/RFSupply/languages/languages_strings.c
             __string_222   0x001d84    program     static /storage/PicStuff/RFSupply/languages/languages_strings.c
             __string_223   0x001d76    program     static /storage/PicStuff/RFSupply/languages/languages_strings.c
             __string_224   0x001d6d    program     static /storage/PicStuff/RFSupply/languages/languages_strings.c
             __string_225   0x001d62    program     static /storage/PicStuff/RFSupply/languages/languages_strings.c
             __string_226   0x001d51    program     static /storage/PicStuff/RFSupply/languages/languages_strings.c
             __string_227   0x001d46    program     static /storage/PicStuff/RFSupply/languages/languages_strings.c
             __string_228   0x001d3e    program     static /storage/PicStuff/RFSupply/languages/languages_strings.c
             __string_229   0x001d35    program     static /storage/PicStuff/RFSupply/languages/languages_strings.c
              __string_23   0x00289c    program     static /storage/PicStuff/RFSupply/languages/languages_strings.c
             __string_230   0x001d2b    program     static /storage/PicStuff/RFSupply/languages/languages_strings.c
             __string_231   0x001d1e    program     static /storage/PicStuff/RFSupply/languages/languages_strings.c
             __string_232   0x001d0f    program     static /storage/PicStuff/RFSupply/languages/languages_strings.c
             __string_233   0x001d00    program     static /storage/PicStuff/RFSupply/languages/languages_strings.c
             __string_234   0x001cf6    program     static /storage/PicStuff/RFSupply/languages/languages_strings.c
             __string_235   0x001cea    program     static /storage/PicStuff/RFSupply/languages/languages_strings.c
             __string_236   0x001cde    program     static /storage/PicStuff/RFSupply/languages/languages_strings.c
             __string_237   0x001cce    program     static /storage/PicStuff/RFSupply/languages/languages_strings.c
             __string_238   0x001cbd    program     static /storage/PicStuff/RFSupply/languages/languages_strings.c
             __string_239   0x001cb0    program     static /storage/PicStuff/RFSupply/languages/languages_strings.c
              __string_24   0x00288f    program     static /storage/PicStuff/RFSupply/languages/languages_strings.c
             __string_240   0x001ca0    program     static /storage/PicStuff/RFSupply/languages/languages_strings.c
             __string_241   0x001c8f    program     static /storage/PicStuff/RFSupply/languages/languages_strings.c
             __string_242   0x001c7f    program     static /storage/PicStuff/RFSupply/languages/languages_strings.c
             __string_243   0x001c6f    program     static /storage/PicStuff/RFSupply/languages/languages_strings.c
             __string_244   0x001c5f    program     static /storage/PicStuff/RFSupply/languages/languages_strings.c
             __string_245   0x001c53    program     static /storage/PicStuff/RFSupply/languages/languages_strings.c
             __string_246   0x001c45    program     static /storage/PicStuff/RFSupply/languages/languages_strings.c
             __string_247   0x001c36    program     static /storage/PicStuff/RFSupply/languages/languages_strings.c
             __string_248   0x001c28    program     static /storage/PicStuff/RFSupply/languages/languages_strings.c
             __string_249   0x001c17    program     static /storage/PicStuff/RFSupply/languages/languages_strings.c
              __string_25   0x002881    program     static /storage/PicStuff/RFSupply/languages/languages_strings.c
             __string_250   0x001c08    program     static /storage/PicStuff/RFSupply/languages/languages_strings.c
             __string_251   0x001bf7    program     static /storage/PicStuff/RFSupply/languages/languages_strings.c
             __string_252   0x001be6    program     static /storage/PicStuff/RFSupply/languages/languages_strings.c
             __string_253   0x001be1    program     static /storage/PicStuff/RFSupply/languages/languages_strings.c
             __string_254   0x001bd2    program     static /storage/PicStuff/RFSupply/languages/languages_strings.c
             __string_255   0x001bc1    program     static /storage/PicStuff/RFSupply/languages/languages_strings.c
             __string_256   0x001bb2    program     static /storage/PicStuff/RFSupply/languages/languages_strings.c
             __string_257   0x001ba2    program     static /storage/PicStuff/RFSupply/languages/languages_strings.c
             __string_258   0x001b92    program     static /storage/PicStuff/RFSupply/languages/languages_strings.c
             __string_259   0x001b81    program     static /storage/PicStuff/RFSupply/languages/languages_strings.c
              __string_26   0x002876    program     static /storage/PicStuff/RFSupply/languages/languages_strings.c
             __string_260   0x001b71    program     static /storage/PicStuff/RFSupply/languages/languages_strings.c
             __string_261   0x001b61    program     static /storage/PicStuff/RFSupply/languages/languages_strings.c
             __string_262   0x001b50    program     static /storage/PicStuff/RFSupply/languages/languages_strings.c
             __string_263   0x001b40    program     static /storage/PicStuff/RFSupply/languages/languages_strings.c
             __string_264   0x001b33    program     static /storage/PicStuff/RFSupply/languages/languages_strings.c
             __string_265   0x001b22    program     static /storage/PicStuff/RFSupply/languages/languages_strings.c
             __string_266   0x001b11    program     static /storage/PicStuff/RFSupply/languages/languages_strings.c
             __string_267   0x001b00    program     static /storage/PicStuff/RFSupply/languages/languages_strings.c
             __string_268   0x001aef    program     static /storage/PicStuff/RFSupply/languages/languages_strings.c
             __string_269   0x001adf    program     static /storage/PicStuff/RFSupply/languages/languages_strings.c
              __string_27   0x002868    program     static /storage/PicStuff/RFSupply/languages/languages_strings.c
             __string_270   0x001ad1    program     static /storage/PicStuff/RFSupply/languages/languages_strings.c
             __string_271   0x001ac3    program     static /storage/PicStuff/RFSupply/languages/languages_strings.c
             __string_272   0x001ab2    program     static /storage/PicStuff/RFSupply/languages/languages_strings.c
             __string_273   0x001aa1    program     static /storage/PicStuff/RFSupply/languages/languages_strings.c
             __string_274   0x001a91    program     static /storage/PicStuff/RFSupply/languages/languages_strings.c
             __string_275   0x001a80    program     static /storage/PicStuff/RFSupply/languages/languages_strings.c
             __string_276   0x001a73    program     static /storage/PicStuff/RFSupply/languages/languages_strings.c
             __string_277   0x001a67    program     static /storage/PicStuff/RFSupply/languages/languages_strings.c
             __string_278   0x001a59    program     static /storage/PicStuff/RFSupply/languages/languages_strings.c
             __string_279   0x001a50    program     static /storage/PicStuff/RFSupply/languages/languages_strings.c
              __string_28   0x002859    program     static /storage/PicStuff/RFSupply/languages/languages_strings.c
             __string_280   0x001a45    program     static /storage/PicStuff/RFSupply/languages/languages_strings.c
             __string_281   0x001a3c    program     static /storage/PicStuff/RFSupply/languages/languages_strings.c
             __string_282   0x001a2b    program     static /storage/PicStuff/RFSupply/languages/languages_strings.c
             __string_283   0x001a1a    program     static /storage/PicStuff/RFSupply/languages/languages_strings.c
             __string_284   0x001a0a    program     static /storage/PicStuff/RFSupply/languages/languages_strings.c
             __string_285   0x0019f9    program     static /storage/PicStuff/RFSupply/languages/languages_strings.c
             __string_286   0x0019e9    program     static /storage/PicStuff/RFSupply/languages/languages_strings.c
             __string_287   0x0019d8    program     static /storage/PicStuff/RFSupply/languages/languages_strings.c
             __string_288   0x0019c7    program     static /storage/PicStuff/RFSupply/languages/languages_strings.c
             __string_289   0x0019b7    program     static /storage/PicStuff/RFSupply/languages/languages_strings.c
              __string_29   0x00284c    program     static /storage/PicStuff/RFSupply/languages/languages_strings.c
             __string_290   0x0019a6    program     static /storage/PicStuff/RFSupply/languages/languages_strings.c
             __string_291   0x001997    program     static /storage/PicStuff/RFSupply/languages/languages_strings.c
             __string_292   0x001987    program     static /storage/PicStuff/RFSupply/languages/languages_strings.c
               __string_3   0x002b0c    program     static /storage/PicStuff/RFSupply/logger/logger.c
               __string_3   0x002a24    program     static /storage/PicStuff/RFSupply/languages/languages_strings.c
               __string_3   0x00192f    program     static /storage/PicStuff/RFSupply/infodisplay/infodisplay.c
               __string_3   0x002b4d    program     static /storage/PicStuff/RFSupply/uart/uart.c
              __string_30   0x002836    program     static /storage/PicStuff/RFSupply/languages/languages_strings.c
              __string_31   0x002826    program     static /storage/PicStuff/RFSupply/languages/languages_strings.c
              __string_32   0x002810    program     static /storage/PicStuff/RFSupply/languages/languages_strings.c
              __string_33   0x00280c    program     static /storage/PicStuff/RFSupply/languages/languages_strings.c
              __string_34   0x002805    program     static /storage/PicStuff/RFSupply/languages/languages_strings.c
              __string_35   0x0027ff    program     static /storage/PicStuff/RFSupply/languages/languages_strings.c
              __string_36   0x0027f9    program     static /storage/PicStuff/RFSupply/languages/languages_strings.c
              __string_37   0x0027f1    program     static /storage/PicStuff/RFSupply/languages/languages_strings.c
              __string_38   0x0027eb    program     static /storage/PicStuff/RFSupply/languages/languages_strings.c
              __string_39   0x0027e0    program     static /storage/PicStuff/RFSupply/languages/languages_strings.c
               __string_4   0x002b47    program     static /storage/PicStuff/RFSupply/uart/uart.c
               __string_4   0x002b02    program     static /storage/PicStuff/RFSupply/logger/logger.c
               __string_4   0x002a11    program     static /storage/PicStuff/RFSupply/languages/languages_strings.c
              __string_40   0x0027c9    program     static /storage/PicStuff/RFSupply/languages/languages_strings.c
              __string_41   0x0027b2    program     static /storage/PicStuff/RFSupply/languages/languages_strings.c
              __string_42   0x00279b    program     static /storage/PicStuff/RFSupply/languages/languages_strings.c
              __string_43   0x002784    program     static /storage/PicStuff/RFSupply/languages/languages_strings.c
              __string_44   0x002779    program     static /storage/PicStuff/RFSupply/languages/languages_strings.c
              __string_45   0x00276f    program     static /storage/PicStuff/RFSupply/languages/languages_strings.c
              __string_46   0x002761    program     static /storage/PicStuff/RFSupply/languages/languages_strings.c
              __string_47   0x002759    program     static /storage/PicStuff/RFSupply/languages/languages_strings.c
              __string_48   0x00274a    program     static /storage/PicStuff/RFSupply/languages/languages_strings.c
              __string_49   0x002741    program     static /storage/PicStuff/RFSupply/languages/languages_strings.c
               __string_5   0x002a00    program     static /storage/PicStuff/RFSupply/languages/languages_strings.c
               __string_5   0x002b41    program     static /storage/PicStuff/RFSupply/uart/uart.c
               __string_5   0x002b00    program     static /storage/PicStuff/RFSupply/logger/logger.c
              __string_50   0x002737    program     static /storage/PicStuff/RFSupply/languages/languages_strings.c
              __string_51   0x002721    program     static /storage/PicStuff/RFSupply/languages/languages_strings.c
              __string_52   0x00270b    program     static /storage/PicStuff/RFSupply/languages/languages_strings.c
              __string_53   0x0026f8    program     static /storage/PicStuff/RFSupply/languages/languages_strings.c
              __string_54   0x0026eb    program     static /storage/PicStuff/RFSupply/languages/languages_strings.c
              __string_55   0x0026dd    program     static /storage/PicStuff/RFSupply/languages/languages_strings.c
              __string_56   0x0026cd    program     static /storage/PicStuff/RFSupply/languages/languages_strings.c
              __string_57   0x0026bc    program     static /storage/PicStuff/RFSupply/languages/languages_strings.c
              __string_58   0x0026ac    program     static /storage/PicStuff/RFSupply/languages/languages_strings.c
              __string_59   0x0026a5    program     static /storage/PicStuff/RFSupply/languages/languages_strings.c
               __string_6   0x002b3b    program     static /storage/PicStuff/RFSupply/uart/uart.c
               __string_6   0x002af9    program     static /storage/PicStuff/RFSupply/logger/logger.c
               __string_6   0x0029f7    program     static /storage/PicStuff/RFSupply/languages/languages_strings.c
              __string_60   0x00269e    program     static /storage/PicStuff/RFSupply/languages/languages_strings.c
              __string_61   0x00268d    program     static /storage/PicStuff/RFSupply/languages/languages_strings.c
              __string_62   0x00267c    program     static /storage/PicStuff/RFSupply/languages/languages_strings.c
              __string_63   0x00266b    program     static /storage/PicStuff/RFSupply/languages/languages_strings.c
              __string_64   0x00265a    program     static /storage/PicStuff/RFSupply/languages/languages_strings.c
              __string_65   0x002652    program     static /storage/PicStuff/RFSupply/languages/languages_strings.c
              __string_66   0x00264b    program     static /storage/PicStuff/RFSupply/languages/languages_strings.c
              __string_67   0x002646    program     static /storage/PicStuff/RFSupply/languages/languages_strings.c
              __string_68   0x002640    program     static /storage/PicStuff/RFSupply/languages/languages_strings.c
              __string_69   0x002639    program     static /storage/PicStuff/RFSupply/languages/languages_strings.c
               __string_7   0x0029ec    program     static /storage/PicStuff/RFSupply/languages/languages_strings.c
               __string_7   0x002af6    program     static /storage/PicStuff/RFSupply/logger/logger.c
               __string_7   0x002b35    program     static /storage/PicStuff/RFSupply/uart/uart.c
              __string_70   0x002628    program     static /storage/PicStuff/RFSupply/languages/languages_strings.c
              __string_71   0x002617    program     static /storage/PicStuff/RFSupply/languages/languages_strings.c
              __string_72   0x00260d    program     static /storage/PicStuff/RFSupply/languages/languages_strings.c
              __string_73   0x002601    program     static /storage/PicStuff/RFSupply/languages/languages_strings.c
              __string_74   0x0025f3    program     static /storage/PicStuff/RFSupply/languages/languages_strings.c
              __string_75   0x0025e8    program     static /storage/PicStuff/RFSupply/languages/languages_strings.c
              __string_76   0x0025da    program     static /storage/PicStuff/RFSupply/languages/languages_strings.c
              __string_77   0x0025d0    program     static /storage/PicStuff/RFSupply/languages/languages_strings.c
              __string_78   0x0025c6    program     static /storage/PicStuff/RFSupply/languages/languages_strings.c
              __string_79   0x0025bb    program     static /storage/PicStuff/RFSupply/languages/languages_strings.c
               __string_8   0x0029de    program     static /storage/PicStuff/RFSupply/languages/languages_strings.c
               __string_8   0x002b2f    program     static /storage/PicStuff/RFSupply/uart/uart.c
               __string_8   0x002af2    program     static /storage/PicStuff/RFSupply/logger/logger.c
              __string_80   0x0025af    program     static /storage/PicStuff/RFSupply/languages/languages_strings.c
              __string_81   0x0025a3    program     static /storage/PicStuff/RFSupply/languages/languages_strings.c
              __string_82   0x002597    program     static /storage/PicStuff/RFSupply/languages/languages_strings.c
              __string_83   0x00258a    program     static /storage/PicStuff/RFSupply/languages/languages_strings.c
              __string_84   0x002584    program     static /storage/PicStuff/RFSupply/languages/languages_strings.c
              __string_85   0x00257e    program     static /storage/PicStuff/RFSupply/languages/languages_strings.c
              __string_86   0x002573    program     static /storage/PicStuff/RFSupply/languages/languages_strings.c
              __string_87   0x00256a    program     static /storage/PicStuff/RFSupply/languages/languages_strings.c
              __string_88   0x002561    program     static /storage/PicStuff/RFSupply/languages/languages_strings.c
              __string_89   0x00255a    program     static /storage/PicStuff/RFSupply/languages/languages_strings.c
               __string_9   0x0029cf    program     static /storage/PicStuff/RFSupply/languages/languages_strings.c
               __string_9   0x002aee    program     static /storage/PicStuff/RFSupply/logger/logger.c
               __string_9   0x002b29    program     static /storage/PicStuff/RFSupply/uart/uart.c
              __string_90   0x002551    program     static /storage/PicStuff/RFSupply/languages/languages_strings.c
              __string_91   0x00254a    program     static /storage/PicStuff/RFSupply/languages/languages_strings.c
              __string_92   0x002543    program     static /storage/PicStuff/RFSupply/languages/languages_strings.c
              __string_93   0x00253c    program     static /storage/PicStuff/RFSupply/languages/languages_strings.c
              __string_94   0x002535    program     static /storage/PicStuff/RFSupply/languages/languages_strings.c
              __string_95   0x00252e    program     static /storage/PicStuff/RFSupply/languages/languages_strings.c
              __string_96   0x002527    program     static /storage/PicStuff/RFSupply/languages/languages_strings.c
              __string_97   0x002520    program     static /storage/PicStuff/RFSupply/languages/languages_strings.c
              __string_98   0x002519    program     static /storage/PicStuff/RFSupply/languages/languages_strings.c
              __string_99   0x002512    program     static /storage/PicStuff/RFSupply/languages/languages_strings.c
               __tmplbl_0   0x006114    program     static                          
            __zero_memory   0x008588    program     extern C:\MCC18\v3_39\src\traditional\proc\p18F2620.asm
                _do_cinit   0x00824e    program     extern C:\MCC18\v3_39\src\traditional\startup\c018i.c
                   _entry   0x000000    program     extern C:\MCC18\v3_39\src\traditional\startup\c018i.c
                   _false   0x0084b4    program     static                          
                 _startup   0x0085c8    program     extern C:\MCC18\v3_39\src\traditional\startup\c018i.c
          adc_get_reading   0x007e44    program     extern /storage/PicStuff/RFSupply/adc/adc.c
                 adc_init   0x007da6    program     extern /storage/PicStuff/RFSupply/adc/adc.c
     backlight_enter_temp   0x006d22    program     extern /storage/PicStuff/RFSupply/lcd/backlight.c
           backlight_fade   0x006f18    program     extern /storage/PicStuff/RFSupply/lcd/backlight.c
           backlight_init   0x006cf8    program     extern /storage/PicStuff/RFSupply/lcd/backlight.c
     backlight_leave_temp   0x006d34    program     extern /storage/PicStuff/RFSupply/lcd/backlight.c
           backlight_mode   0x006d6a    program     extern /storage/PicStuff/RFSupply/lcd/backlight.c
        backlight_process   0x006dc0    program     extern /storage/PicStuff/RFSupply/lcd/backlight.c
            backlight_set   0x006d40    program     extern /storage/PicStuff/RFSupply/lcd/backlight.c
      backlight_set_flash   0x006fb2    program     extern /storage/PicStuff/RFSupply/lcd/backlight.c
      backlight_set_pulse   0x006f5e    program     extern /storage/PicStuff/RFSupply/lcd/backlight.c
    backlight_start_flash   0x007006    program     extern /storage/PicStuff/RFSupply/lcd/backlight.c
    backlight_start_pulse   0x006fa6    program     extern /storage/PicStuff/RFSupply/lcd/backlight.c
                baudnames   0x008548    program     extern /storage/PicStuff/RFSupply/uart/uart.c
    baudrate_config_items   0x007a30    program     extern /storage/PicStuff/RFSupply/config_manager/config_iteminfo.c
                baudrates   0x008532    program     extern /storage/PicStuff/RFSupply/uart/uart.c
                  blevels   0x0084ba    program     extern /storage/PicStuff/RFSupply/lcd/backlight.c
                compare_l   0x00859e    program     static C:\MCC18\v3_39\src\traditional\proc\p18F2620.asm
            config_editor   0x000bde    program     extern /storage/PicStuff/RFSupply/config_manager/config_editor.c
config_editor_configselector   0x000f80    program     extern /storage/PicStuff/RFSupply/config_manager/config_editor.c
config_editor_editselected   0x000380    program     extern /storage/PicStuff/RFSupply/config_manager/config_editor.c
 config_editor_editstring   0x00046c    program     extern /storage/PicStuff/RFSupply/config_manager/config_editor.c
       config_editor_exit   0x0008fe    program     extern /storage/PicStuff/RFSupply/config_manager/config_editor.c
config_editor_loadselected   0x00042e    program     extern /storage/PicStuff/RFSupply/config_manager/config_editor.c
        config_editor_pop   0x0008a0    program     extern /storage/PicStuff/RFSupply/config_manager/config_editor.c
       config_editor_push   0x000824    program     extern /storage/PicStuff/RFSupply/config_manager/config_editor.c
config_editor_saveselected   0x0003f4    program     extern /storage/PicStuff/RFSupply/config_manager/config_editor.c
config_editor_set_current   0x000570    program     extern /storage/PicStuff/RFSupply/config_manager/config_editor.c
config_editor_set_current_valitem   0x000a94    program     extern /storage/PicStuff/RFSupply/config_manager/config_editor.c
config_editor_show_editstring   0x00050c    program     extern /storage/PicStuff/RFSupply/config_manager/config_editor.c
      config_editor_start   0x000296    program     extern /storage/PicStuff/RFSupply/config_manager/config_editor.c
config_editor_stringeditor   0x00109e    program     extern /storage/PicStuff/RFSupply/config_manager/config_editor.c
 config_editor_update_var   0x000910    program     extern /storage/PicStuff/RFSupply/config_manager/config_editor.c
        config_editor_val   0x000d1e    program     extern /storage/PicStuff/RFSupply/config_manager/config_editor.c
config_manager_activate_config   0x007fe2    program     extern /storage/PicStuff/RFSupply/config_manager/config_manager.c
      config_manager_init   0x007ed0    program     extern /storage/PicStuff/RFSupply/config_manager/config_manager.c
config_manager_load_config   0x007f5e    program     extern /storage/PicStuff/RFSupply/config_manager/config_manager.c
config_manager_load_main_config   0x007f1e    program     extern /storage/PicStuff/RFSupply/config_manager/config_manager.c
config_memory_check_config   0x0056f2    program     extern /storage/PicStuff/RFSupply/config_manager/config_memory.c
config_memory_default_config   0x0058ae    program     extern /storage/PicStuff/RFSupply/config_manager/config_memory.c
config_memory_default_main_config   0x005586    program     extern /storage/PicStuff/RFSupply/config_manager/config_memory.c
   config_memory_get_name   0x005766    program     extern /storage/PicStuff/RFSupply/config_manager/config_memory.c
       config_memory_init   0x00552c    program     extern /storage/PicStuff/RFSupply/config_manager/config_memory.c
config_memory_load_config   0x0059f6    program     extern /storage/PicStuff/RFSupply/config_manager/config_memory.c
config_memory_load_main_config   0x0055ce    program     extern /storage/PicStuff/RFSupply/config_manager/config_memory.c
config_memory_save_config   0x005afa    program     extern /storage/PicStuff/RFSupply/config_manager/config_memory.c
config_memory_save_main_config   0x005690    program     extern /storage/PicStuff/RFSupply/config_manager/config_memory.c
       config_memory_swap   0x005808    program     extern /storage/PicStuff/RFSupply/config_manager/config_memory.c
   config_show_configname   0x0015ac    program     extern /storage/PicStuff/RFSupply/config_manager/config_editor.c
        config_show_entry   0x0012f0    program     extern /storage/PicStuff/RFSupply/config_manager/config_editor.c
         config_show_name   0x001280    program     extern /storage/PicStuff/RFSupply/config_manager/config_editor.c
        config_show_value   0x00176a    program     extern /storage/PicStuff/RFSupply/config_manager/config_editor.c
                copy_loop   0x0082c0    program     static                          
            copy_one_byte   0x0082c6    program     static                          
    copy_romstring_to_ram   0x007700    program     extern /storage/PicStuff/RFSupply/helpers/helpers.c
           crc_calc_block   0x00805c    program     extern /storage/PicStuff/RFSupply/crc/crc.c
            crc_calc_byte   0x0080aa    program     extern /storage/PicStuff/RFSupply/crc/crc.c
                 crc_core   0x00800c    program     extern /storage/PicStuff/RFSupply/crc/crc.c
             crc_set_seed   0x007ff0    program     extern /storage/PicStuff/RFSupply/crc/crc.c
          default_ui_func   0x0080e8    program     extern /storage/PicStuff/RFSupply/main.c
                   divmod   0x0076ac    program     extern /storage/PicStuff/RFSupply/helpers/helpers.c
       divmod_get_divider   0x007698    program     extern /storage/PicStuff/RFSupply/helpers/helpers.c
     divmod_get_remainder   0x00765c    program     extern /storage/PicStuff/RFSupply/helpers/helpers.c
               divmod_set   0x0075f4    program     extern /storage/PicStuff/RFSupply/helpers/helpers.c
       divmod_set_divider   0x007670    program     extern /storage/PicStuff/RFSupply/helpers/helpers.c
     divmod_set_remainder   0x007634    program     extern /storage/PicStuff/RFSupply/helpers/helpers.c
                     done   0x0082ea    program     static                          
             done_copying   0x0082d4    program     static                          
        eeprom_read_block   0x007c38    program     extern /storage/PicStuff/RFSupply/eeprom/eeprom.c
         eeprom_read_byte   0x007c06    program     extern /storage/PicStuff/RFSupply/eeprom/eeprom.c
       eeprom_write_block   0x007d08    program     extern /storage/PicStuff/RFSupply/eeprom/eeprom.c
        eeprom_write_byte   0x007caa    program     extern /storage/PicStuff/RFSupply/eeprom/eeprom.c
           empty_callback   0x007568    program     extern /storage/PicStuff/RFSupply/helpers/helpers.c
     encoder_clear_button   0x00786a    program     extern /storage/PicStuff/RFSupply/encoder/encoder.c
              encoder_get   0x00780c    program     extern /storage/PicStuff/RFSupply/encoder/encoder.c
       encoder_get_button   0x00782e    program     extern /storage/PicStuff/RFSupply/encoder/encoder.c
             encoder_init   0x0077d0    program     extern /storage/PicStuff/RFSupply/encoder/encoder.c
            encoder_reset   0x007824    program     extern /storage/PicStuff/RFSupply/encoder/encoder.c
        encoder_reset_all   0x007878    program     extern /storage/PicStuff/RFSupply/encoder/encoder.c
     encoder_reset_button   0x007850    program     extern /storage/PicStuff/RFSupply/encoder/encoder.c
         get_delta_ushort   0x007750    program     extern /storage/PicStuff/RFSupply/helpers/helpers.c
            hardware_init   0x0084fa    program     extern /storage/PicStuff/RFSupply/hardware/hardware.c
                 high_isr   0x000008    program     extern /storage/PicStuff/RFSupply/interrupt/interrupt.c
         infodisplay_init   0x005ba8    program     extern /storage/PicStuff/RFSupply/infodisplay/infodisplay.c
        infodisplay_reset   0x005bb0    program     extern /storage/PicStuff/RFSupply/infodisplay/infodisplay.c
         infodisplay_show   0x005d9a    program     extern /storage/PicStuff/RFSupply/infodisplay/infodisplay.c
infodisplay_show_powericon   0x005ca4    program     extern /storage/PicStuff/RFSupply/infodisplay/infodisplay.c
 infodisplay_show_version   0x005c30    program     extern /storage/PicStuff/RFSupply/infodisplay/infodisplay.c
infodisplay_update_powericon   0x005d10    program     extern /storage/PicStuff/RFSupply/infodisplay/infodisplay.c
infodisplay_update_powericon_tick   0x005d62    program     extern /storage/PicStuff/RFSupply/infodisplay/infodisplay.c
           interrupt_init   0x0085e4    program     extern /storage/PicStuff/RFSupply/interrupt/interrupt.c
    language_config_items   0x007a2e    program     extern /storage/PicStuff/RFSupply/config_manager/config_iteminfo.c
         language_entries   0x0072ce    program     extern /storage/PicStuff/RFSupply/languages/languages_strings.c
       languages_get_lang   0x008246    program     extern /storage/PicStuff/RFSupply/languages/languages.c
           languages_init   0x0081a6    program     extern /storage/PicStuff/RFSupply/languages/languages.c
         languages_reload   0x0081b4    program     extern /storage/PicStuff/RFSupply/languages/languages.c
       languages_set_lang   0x0081be    program     extern /storage/PicStuff/RFSupply/languages/languages.c
           lcd_delay_long   0x002b82    program     extern /storage/PicStuff/RFSupply/lcd/lcd.c
          lcd_delay_short   0x002b62    program     extern /storage/PicStuff/RFSupply/lcd/lcd.c
        lcd_draw_bargraph   0x002ff6    program     extern /storage/PicStuff/RFSupply/lcd/lcd.c
                 lcd_init   0x002c06    program     extern /storage/PicStuff/RFSupply/lcd/lcd.c
               lcd_moveto   0x002d1c    program     extern /storage/PicStuff/RFSupply/lcd/lcd.c
            lcd_put_digit   0x00340c    program     extern /storage/PicStuff/RFSupply/lcd/lcd.c
lcd_upload_infoicon_ticker   0x003840    program     extern /storage/PicStuff/RFSupply/lcd/lcd.c
      lcd_upload_ramglyph   0x003706    program     extern /storage/PicStuff/RFSupply/lcd/lcd.c
 lcd_upload_ramglyph_line   0x003808    program     extern /storage/PicStuff/RFSupply/lcd/lcd.c
        lcd_write_char_at   0x002fca    program     extern /storage/PicStuff/RFSupply/lcd/lcd.c
 lcd_write_command_single   0x002bd4    program     extern /storage/PicStuff/RFSupply/lcd/lcd.c
    lcd_write_data_single   0x002ba2    program     extern /storage/PicStuff/RFSupply/lcd/lcd.c
           lcd_write_dnum   0x003262    program     extern /storage/PicStuff/RFSupply/lcd/lcd.c
        lcd_write_line_at   0x002d98    program     extern /storage/PicStuff/RFSupply/lcd/lcd.c
    lcd_write_line_ram_at   0x002f4c    program     extern /storage/PicStuff/RFSupply/lcd/lcd.c
   lcd_write_longnum_line   0x00344e    program     extern /storage/PicStuff/RFSupply/lcd/lcd.c
            lcd_write_num   0x00313e    program     extern /storage/PicStuff/RFSupply/lcd/lcd.c
         lcd_write_string   0x002cde    program     extern /storage/PicStuff/RFSupply/lcd/lcd.c
      lcd_write_string_at   0x002d48    program     extern /storage/PicStuff/RFSupply/lcd/lcd.c
      lcd_write_time_line   0x003940    program     extern /storage/PicStuff/RFSupply/lcd/lcd.c
     lcd_write_tr_line_at   0x002e9a    program     extern /storage/PicStuff/RFSupply/lcd/lcd.c
   lcd_write_tr_string_at   0x002e1a    program     extern /storage/PicStuff/RFSupply/lcd/lcd.c
           lcd_write_vnum   0x003362    program     extern /storage/PicStuff/RFSupply/lcd/lcd.c
      logger_config_items   0x007a3b    program     extern /storage/PicStuff/RFSupply/config_manager/config_iteminfo.c
              logger_init   0x004492    program     extern /storage/PicStuff/RFSupply/logger/logger.c
logger_print_elapsed_seconds   0x004900    program     extern /storage/PicStuff/RFSupply/logger/logger.c
      logger_print_header   0x00495a    program     extern /storage/PicStuff/RFSupply/logger/logger.c
  logger_print_module_msg   0x004640    program     extern /storage/PicStuff/RFSupply/logger/logger.c
logger_print_module_msg_ramval   0x00479c    program     extern /storage/PicStuff/RFSupply/logger/logger.c
logger_print_module_msg_stringval   0x00472a    program     extern /storage/PicStuff/RFSupply/logger/logger.c
logger_print_module_msg_val   0x00468e    program     extern /storage/PicStuff/RFSupply/logger/logger.c
      logger_print_params   0x004998    program     extern /storage/PicStuff/RFSupply/logger/logger.c
   logger_print_start_msg   0x0045f8    program     extern /storage/PicStuff/RFSupply/logger/logger.c
logger_print_timed_change_msg   0x00480e    program     extern /storage/PicStuff/RFSupply/logger/logger.c
  logger_print_twostrings   0x00455c    program     extern /storage/PicStuff/RFSupply/logger/logger.c
     logger_print_version   0x0044b8    program     extern /storage/PicStuff/RFSupply/logger/logger.c
        logger_set_config   0x0044a2    program     extern /storage/PicStuff/RFSupply/logger/logger.c
                     loop   0x0085d8    program     static                          
                     loop   0x008480    program     static                          
                   loop_h   0x008596    program     static C:\MCC18\v3_39\src\traditional\proc\p18F2620.asm
                   loop_l   0x0085a0    program     static C:\MCC18\v3_39\src\traditional\proc\p18F2620.asm
                  low_isr   0x000018    program     extern /storage/PicStuff/RFSupply/interrupt/interrupt.c
                     main   0x00815c    program     extern /storage/PicStuff/RFSupply/main.c
         main_config_data   0x007a6f    program     extern /storage/PicStuff/RFSupply/config_manager/config_iteminfo.c
        main_config_items   0x007a47    program     extern /storage/PicStuff/RFSupply/config_manager/config_iteminfo.c
                main_menu   0x0085c0    program     extern /storage/PicStuff/RFSupply/menu/menudata.c
        main_menu_entries   0x0085a8    program     extern /storage/PicStuff/RFSupply/menu/menudata.c
         main_return_func   0x0080cc    program     extern /storage/PicStuff/RFSupply/main.c
                menu_exec   0x006b08    program     extern /storage/PicStuff/RFSupply/menu/menu.c
                menu_exit   0x0069ca    program     extern /storage/PicStuff/RFSupply/menu/menu.c
              menu_return   0x0069b0    program     extern /storage/PicStuff/RFSupply/menu/menu.c
          menu_show_entry   0x006a8a    program     extern /storage/PicStuff/RFSupply/menu/menu.c
           menu_show_name   0x006a30    program     extern /storage/PicStuff/RFSupply/menu/menu.c
               menu_start   0x00694a    program     extern /storage/PicStuff/RFSupply/menu/menu.c
             modules_init   0x008110    program     extern /storage/PicStuff/RFSupply/main.c
pm_backlight_constant_items   0x007afd    program     extern /storage/PicStuff/RFSupply/config_manager/config_iteminfo.c
 pm_backlight_flash_items   0x007b1d    program     extern /storage/PicStuff/RFSupply/config_manager/config_iteminfo.c
       pm_backlight_modes   0x007af7    program     extern /storage/PicStuff/RFSupply/config_manager/config_iteminfo.c
 pm_backlight_pulse_items   0x007b05    program     extern /storage/PicStuff/RFSupply/config_manager/config_iteminfo.c
          pm_config_items   0x007b3d    program     extern /storage/PicStuff/RFSupply/config_manager/config_iteminfo.c
       pm_editconfig_data   0x007be7    program     extern /storage/PicStuff/RFSupply/config_manager/config_iteminfo.c
pm_heatup_endcondition_items   0x007a87    program     extern /storage/PicStuff/RFSupply/config_manager/config_iteminfo.c
pm_heatup_endcondition_parameter_items   0x007a8b    program     extern /storage/PicStuff/RFSupply/config_manager/config_iteminfo.c
pm_heatup_parameter_items   0x007a81    program     extern /storage/PicStuff/RFSupply/config_manager/config_iteminfo.c
            pm_idle_items   0x007aab    program     extern /storage/PicStuff/RFSupply/config_manager/config_iteminfo.c
       pm_loadconfig_data   0x007bfb    program     extern /storage/PicStuff/RFSupply/config_manager/config_iteminfo.c
       pm_saveconfig_data   0x007bf1    program     extern /storage/PicStuff/RFSupply/config_manager/config_iteminfo.c
           pm_sleep_items   0x007abf    program     extern /storage/PicStuff/RFSupply/config_manager/config_iteminfo.c
   pm_sleep_options_items   0x007abb    program     extern /storage/PicStuff/RFSupply/config_manager/config_iteminfo.c
         pm_startup_items   0x007a79    program     extern /storage/PicStuff/RFSupply/config_manager/config_iteminfo.c
pm_wakeup_endcondition_items   0x007ae3    program     extern /storage/PicStuff/RFSupply/config_manager/config_iteminfo.c
pm_wakeup_endcondition_parameter_items   0x007ae7    program     extern /storage/PicStuff/RFSupply/config_manager/config_iteminfo.c
pm_wakeup_parameter_items   0x007adf    program     extern /storage/PicStuff/RFSupply/config_manager/config_iteminfo.c
  power_manager_get_state   0x004314    program     extern /storage/PicStuff/RFSupply/power_manager/power_manager.c
power_manager_get_state_seconds   0x00447e    program     extern /storage/PicStuff/RFSupply/power_manager/power_manager.c
power_manager_get_state_string   0x00431c    program     extern /storage/PicStuff/RFSupply/power_manager/power_manager.c
       power_manager_init   0x003a0a    program     extern /storage/PicStuff/RFSupply/power_manager/power_manager.c
 power_manager_init_state   0x003a6a    program     extern /storage/PicStuff/RFSupply/power_manager/power_manager.c
    power_manager_process   0x003ab6    program     extern /storage/PicStuff/RFSupply/power_manager/power_manager.c
      power_manager_reset   0x003a30    program     extern /storage/PicStuff/RFSupply/power_manager/power_manager.c
  power_manager_reset_max   0x003a1c    program     extern /storage/PicStuff/RFSupply/power_manager/power_manager.c
 power_manager_set_config   0x00444c    program     extern /storage/PicStuff/RFSupply/power_manager/power_manager.c
power_manager_set_sleeptime   0x004462    program     extern /storage/PicStuff/RFSupply/power_manager/power_manager.c
  power_manager_set_state   0x0042a2    program     extern /storage/PicStuff/RFSupply/power_manager/power_manager.c
           powerinfoicons   0x00855e    program     extern /storage/PicStuff/RFSupply/infodisplay/infoicons.c
          process_encoder   0x007896    program     extern /storage/PicStuff/RFSupply/encoder/encoder.c
                reset_pic   0x007564    program     extern /storage/PicStuff/RFSupply/helpers/helpers.c
     rf_manager_add_delta   0x004e54    program     extern /storage/PicStuff/RFSupply/rf_manager/rf_manager.c
     rf_manager_calc_data   0x005152    program     extern /storage/PicStuff/RFSupply/rf_manager/rf_manager.c
   rf_manager_clear_delta   0x005008    program     extern /storage/PicStuff/RFSupply/rf_manager/rf_manager.c
      rf_manager_get_mode   0x004e06    program     extern /storage/PicStuff/RFSupply/rf_manager/rf_manager.c
rf_manager_get_mode_string   0x004e0c    program     extern /storage/PicStuff/RFSupply/rf_manager/rf_manager.c
   rf_manager_get_reading   0x005012    program     extern /storage/PicStuff/RFSupply/rf_manager/rf_manager.c
          rf_manager_init   0x004d46    program     extern /storage/PicStuff/RFSupply/rf_manager/rf_manager.c
      rf_manager_set_mode   0x004d88    program     extern /storage/PicStuff/RFSupply/rf_manager/rf_manager.c
   rf_manager_store_delta   0x004ff6    program     extern /storage/PicStuff/RFSupply/rf_manager/rf_manager.c
          seconds_to_time   0x00756a    program     extern /storage/PicStuff/RFSupply/helpers/helpers.c
               strings_DE   0x007170    program     extern /storage/PicStuff/RFSupply/languages/strings_DE
               strings_EN   0x007012    program     extern /storage/PicStuff/RFSupply/languages/strings_EN
                     test   0x008268    program     static                          
                tickerbar   0x00857e    program     extern /storage/PicStuff/RFSupply/infodisplay/infoicons.c
   time_get_delta_seconds   0x0065d8    program     extern /storage/PicStuff/RFSupply/time/time.c
     time_get_delta_ticks   0x006794    program     extern /storage/PicStuff/RFSupply/time/time.c
time_get_reset_delta_seconds   0x006676    program     extern /storage/PicStuff/RFSupply/time/time.c
time_get_reset_delta_ticks   0x0067fc    program     extern /storage/PicStuff/RFSupply/time/time.c
         time_get_seconds   0x006552    program     extern /storage/PicStuff/RFSupply/time/time.c
           time_get_ticks   0x006744    program     extern /storage/PicStuff/RFSupply/time/time.c
                time_init   0x00651a    program     extern /storage/PicStuff/RFSupply/time/time.c
           time_interrupt   0x006894    program     extern /storage/PicStuff/RFSupply/time/time.c
         time_reset_ticks   0x00653c    program     extern /storage/PicStuff/RFSupply/time/time.c
    tip_detect_get_status   0x0083ba    program     extern /storage/PicStuff/RFSupply/tip/tip_detect.c
          tip_detect_init   0x008382    program     extern /storage/PicStuff/RFSupply/tip/tip_detect.c
       tip_detect_process   0x0083a8    program     extern /storage/PicStuff/RFSupply/tip/tip_detect.c
  uart_fifo_get_rx_buffer   0x00745e    program     extern /storage/PicStuff/RFSupply/uart/uart_fifo.c
        uart_fifo_getchar   0x007430    program     extern /storage/PicStuff/RFSupply/uart/uart_fifo.c
           uart_fifo_init   0x0072d2    program     extern /storage/PicStuff/RFSupply/uart/uart_fifo.c
   uart_fifo_num_rx_bytes   0x007458    program     extern /storage/PicStuff/RFSupply/uart/uart_fifo.c
  uart_fifo_put_ramstring   0x007360    program     extern /storage/PicStuff/RFSupply/uart/uart_fifo.c
  uart_fifo_put_romstring   0x0073c6    program     extern /storage/PicStuff/RFSupply/uart/uart_fifo.c
  uart_fifo_put_tx_buffer   0x0074fc    program     extern /storage/PicStuff/RFSupply/uart/uart_fifo.c
        uart_fifo_putchar   0x007322    program     extern /storage/PicStuff/RFSupply/uart/uart_fifo.c
                uart_init   0x0060dc    program     extern /storage/PicStuff/RFSupply/uart/uart.c
       uart_print_longnum   0x0061c6    program     extern /storage/PicStuff/RFSupply/uart/uart.c
uart_print_seconds_as_time   0x006464    program     extern /storage/PicStuff/RFSupply/uart/uart.c
        uart_set_baudrate   0x006144    program     extern /storage/PicStuff/RFSupply/uart/uart.c
               zero_block   0x008596    program     static C:\MCC18\v3_39\src\traditional\proc\p18F2620.asm
                        A   0x000000       data     static /storage/PicStuff/RFSupply/rf_manager/rf_manager.c
                        A   0x000f4f       data     static /storage/PicStuff/RFSupply/lcd/lcd.c
                   ADCON0   0x000fc2       data     extern C:\MCC18\v3_39\src\traditional\proc\p18F2620.asm
               ADCON0bits   0x000fc2       data     extern C:\MCC18\v3_39\src\traditional\proc\p18F2620.asm
                   ADCON1   0x000fc1       data     extern C:\MCC18\v3_39\src\traditional\proc\p18F2620.asm
               ADCON1bits   0x000fc1       data     extern C:\MCC18\v3_39\src\traditional\proc\p18F2620.asm
                   ADCON2   0x000fc0       data     extern C:\MCC18\v3_39\src\traditional\proc\p18F2620.asm
               ADCON2bits   0x000fc0       data     extern C:\MCC18\v3_39\src\traditional\proc\p18F2620.asm
                    ADRES   0x000fc3       data     extern C:\MCC18\v3_39\src\traditional\proc\p18F2620.asm
                   ADRESH   0x000fc4       data     extern C:\MCC18\v3_39\src\traditional\proc\p18F2620.asm
                   ADRESL   0x000fc3       data     extern C:\MCC18\v3_39\src\traditional\proc\p18F2620.asm
                        B   0x000004       data     static /storage/PicStuff/RFSupply/rf_manager/rf_manager.c
                  BAUDCON   0x000fb8       data     extern C:\MCC18\v3_39\src\traditional\proc\p18F2620.asm
              BAUDCONbits   0x000fb8       data     extern C:\MCC18\v3_39\src\traditional\proc\p18F2620.asm
                  BAUDCTL   0x000fb8       data     extern C:\MCC18\v3_39\src\traditional\proc\p18F2620.asm
              BAUDCTLbits   0x000fb8       data     extern C:\MCC18\v3_39\src\traditional\proc\p18F2620.asm
                      BSR   0x000fe0       data     extern C:\MCC18\v3_39\src\traditional\proc\p18F2620.asm
                  CCP1CON   0x000fbd       data     extern C:\MCC18\v3_39\src\traditional\proc\p18F2620.asm
              CCP1CONbits   0x000fbd       data     extern C:\MCC18\v3_39\src\traditional\proc\p18F2620.asm
                  CCP2CON   0x000fba       data     extern C:\MCC18\v3_39\src\traditional\proc\p18F2620.asm
              CCP2CONbits   0x000fba       data     extern C:\MCC18\v3_39\src\traditional\proc\p18F2620.asm
                    CCPR1   0x000fbe       data     extern C:\MCC18\v3_39\src\traditional\proc\p18F2620.asm
                   CCPR1H   0x000fbf       data     extern C:\MCC18\v3_39\src\traditional\proc\p18F2620.asm
                   CCPR1L   0x000fbe       data     extern C:\MCC18\v3_39\src\traditional\proc\p18F2620.asm
                    CCPR2   0x000fbb       data     extern C:\MCC18\v3_39\src\traditional\proc\p18F2620.asm
                   CCPR2H   0x000fbc       data     extern C:\MCC18\v3_39\src\traditional\proc\p18F2620.asm
                   CCPR2L   0x000fbb       data     extern C:\MCC18\v3_39\src\traditional\proc\p18F2620.asm
                    CMCON   0x000fb4       data     extern C:\MCC18\v3_39\src\traditional\proc\p18F2620.asm
                CMCONbits   0x000fb4       data     extern C:\MCC18\v3_39\src\traditional\proc\p18F2620.asm
                      CRC   0x000067       data     static /storage/PicStuff/RFSupply/crc/crc.c
                     CRCD   0x000066       data     static /storage/PicStuff/RFSupply/crc/crc.c
                   CVRCON   0x000fb5       data     extern C:\MCC18\v3_39\src\traditional\proc\p18F2620.asm
               CVRCONbits   0x000fb5       data     extern C:\MCC18\v3_39\src\traditional\proc\p18F2620.asm
                     DDRA   0x000f92       data     extern C:\MCC18\v3_39\src\traditional\proc\p18F2620.asm
                 DDRAbits   0x000f92       data     extern C:\MCC18\v3_39\src\traditional\proc\p18F2620.asm
                     DDRB   0x000f93       data     extern C:\MCC18\v3_39\src\traditional\proc\p18F2620.asm
                 DDRBbits   0x000f93       data     extern C:\MCC18\v3_39\src\traditional\proc\p18F2620.asm
                     DDRC   0x000f94       data     extern C:\MCC18\v3_39\src\traditional\proc\p18F2620.asm
                 DDRCbits   0x000f94       data     extern C:\MCC18\v3_39\src\traditional\proc\p18F2620.asm
                  ECCP1AS   0x000fb6       data     extern C:\MCC18\v3_39\src\traditional\proc\p18F2620.asm
              ECCP1ASbits   0x000fb6       data     extern C:\MCC18\v3_39\src\traditional\proc\p18F2620.asm
                 ECCP1DEL   0x000fb7       data     extern C:\MCC18\v3_39\src\traditional\proc\p18F2620.asm
             ECCP1DELbits   0x000fb7       data     extern C:\MCC18\v3_39\src\traditional\proc\p18F2620.asm
                   ECCPAS   0x000fb6       data     extern C:\MCC18\v3_39\src\traditional\proc\p18F2620.asm
               ECCPASbits   0x000fb6       data     extern C:\MCC18\v3_39\src\traditional\proc\p18F2620.asm
                    EEADR   0x000fa9       data     extern C:\MCC18\v3_39\src\traditional\proc\p18F2620.asm
                   EEADRH   0x000faa       data     extern C:\MCC18\v3_39\src\traditional\proc\p18F2620.asm
                   EECON1   0x000fa6       data     extern C:\MCC18\v3_39\src\traditional\proc\p18F2620.asm
               EECON1bits   0x000fa6       data     extern C:\MCC18\v3_39\src\traditional\proc\p18F2620.asm
                   EECON2   0x000fa7       data     extern C:\MCC18\v3_39\src\traditional\proc\p18F2620.asm
                   EEDATA   0x000fa8       data     extern C:\MCC18\v3_39\src\traditional\proc\p18F2620.asm
                     FSR0   0x000fe9       data     extern C:\MCC18\v3_39\src\traditional\proc\p18F2620.asm
                    FSR0H   0x000fea       data     extern C:\MCC18\v3_39\src\traditional\proc\p18F2620.asm
                    FSR0L   0x000fe9       data     extern C:\MCC18\v3_39\src\traditional\proc\p18F2620.asm
                     FSR1   0x000fe1       data     extern C:\MCC18\v3_39\src\traditional\proc\p18F2620.asm
                    FSR1H   0x000fe2       data     extern C:\MCC18\v3_39\src\traditional\proc\p18F2620.asm
                    FSR1L   0x000fe1       data     extern C:\MCC18\v3_39\src\traditional\proc\p18F2620.asm
                     FSR2   0x000fd9       data     extern C:\MCC18\v3_39\src\traditional\proc\p18F2620.asm
                    FSR2H   0x000fda       data     extern C:\MCC18\v3_39\src\traditional\proc\p18F2620.asm
                    FSR2L   0x000fd9       data     extern C:\MCC18\v3_39\src\traditional\proc\p18F2620.asm
                  HLVDCON   0x000fd2       data     extern C:\MCC18\v3_39\src\traditional\proc\p18F2620.asm
              HLVDCONbits   0x000fd2       data     extern C:\MCC18\v3_39\src\traditional\proc\p18F2620.asm
                    INDF0   0x000fef       data     extern C:\MCC18\v3_39\src\traditional\proc\p18F2620.asm
                    INDF1   0x000fe7       data     extern C:\MCC18\v3_39\src\traditional\proc\p18F2620.asm
                    INDF2   0x000fdf       data     extern C:\MCC18\v3_39\src\traditional\proc\p18F2620.asm
                   INTCON   0x000ff2       data     extern C:\MCC18\v3_39\src\traditional\proc\p18F2620.asm
                  INTCON2   0x000ff1       data     extern C:\MCC18\v3_39\src\traditional\proc\p18F2620.asm
              INTCON2bits   0x000ff1       data     extern C:\MCC18\v3_39\src\traditional\proc\p18F2620.asm
                  INTCON3   0x000ff0       data     extern C:\MCC18\v3_39\src\traditional\proc\p18F2620.asm
              INTCON3bits   0x000ff0       data     extern C:\MCC18\v3_39\src\traditional\proc\p18F2620.asm
               INTCONbits   0x000ff2       data     extern C:\MCC18\v3_39\src\traditional\proc\p18F2620.asm
                     IPR1   0x000f9f       data     extern C:\MCC18\v3_39\src\traditional\proc\p18F2620.asm
                 IPR1bits   0x000f9f       data     extern C:\MCC18\v3_39\src\traditional\proc\p18F2620.asm
                     IPR2   0x000fa2       data     extern C:\MCC18\v3_39\src\traditional\proc\p18F2620.asm
                 IPR2bits   0x000fa2       data     extern C:\MCC18\v3_39\src\traditional\proc\p18F2620.asm
                     LATA   0x000f89       data     extern C:\MCC18\v3_39\src\traditional\proc\p18F2620.asm
                 LATAbits   0x000f89       data     extern C:\MCC18\v3_39\src\traditional\proc\p18F2620.asm
                     LATB   0x000f8a       data     extern C:\MCC18\v3_39\src\traditional\proc\p18F2620.asm
                 LATBbits   0x000f8a       data     extern C:\MCC18\v3_39\src\traditional\proc\p18F2620.asm
                     LATC   0x000f8b       data     extern C:\MCC18\v3_39\src\traditional\proc\p18F2620.asm
                 LATCbits   0x000f8b       data     extern C:\MCC18\v3_39\src\traditional\proc\p18F2620.asm
                   LVDCON   0x000fd2       data     extern C:\MCC18\v3_39\src\traditional\proc\p18F2620.asm
               LVDCONbits   0x000fd2       data     extern C:\MCC18\v3_39\src\traditional\proc\p18F2620.asm
                   OSCCON   0x000fd3       data     extern C:\MCC18\v3_39\src\traditional\proc\p18F2620.asm
               OSCCONbits   0x000fd3       data     extern C:\MCC18\v3_39\src\traditional\proc\p18F2620.asm
                  OSCTUNE   0x000f9b       data     extern C:\MCC18\v3_39\src\traditional\proc\p18F2620.asm
              OSCTUNEbits   0x000f9b       data     extern C:\MCC18\v3_39\src\traditional\proc\p18F2620.asm
                       PC   0x000ff9       data     extern C:\MCC18\v3_39\src\traditional\proc\p18F2620.asm
                      PCL   0x000ff9       data     extern C:\MCC18\v3_39\src\traditional\proc\p18F2620.asm
                   PCLATH   0x000ffa       data     extern C:\MCC18\v3_39\src\traditional\proc\p18F2620.asm
                   PCLATU   0x000ffb       data     extern C:\MCC18\v3_39\src\traditional\proc\p18F2620.asm
                     PIE1   0x000f9d       data     extern C:\MCC18\v3_39\src\traditional\proc\p18F2620.asm
                 PIE1bits   0x000f9d       data     extern C:\MCC18\v3_39\src\traditional\proc\p18F2620.asm
                     PIE2   0x000fa0       data     extern C:\MCC18\v3_39\src\traditional\proc\p18F2620.asm
                 PIE2bits   0x000fa0       data     extern C:\MCC18\v3_39\src\traditional\proc\p18F2620.asm
                     PIR1   0x000f9e       data     extern C:\MCC18\v3_39\src\traditional\proc\p18F2620.asm
                 PIR1bits   0x000f9e       data     extern C:\MCC18\v3_39\src\traditional\proc\p18F2620.asm
                     PIR2   0x000fa1       data     extern C:\MCC18\v3_39\src\traditional\proc\p18F2620.asm
                 PIR2bits   0x000fa1       data     extern C:\MCC18\v3_39\src\traditional\proc\p18F2620.asm
                   PLUSW0   0x000feb       data     extern C:\MCC18\v3_39\src\traditional\proc\p18F2620.asm
                   PLUSW1   0x000fe3       data     extern C:\MCC18\v3_39\src\traditional\proc\p18F2620.asm
                   PLUSW2   0x000fdb       data     extern C:\MCC18\v3_39\src\traditional\proc\p18F2620.asm
                    PORTA   0x000f80       data     extern C:\MCC18\v3_39\src\traditional\proc\p18F2620.asm
                PORTAbits   0x000f80       data     extern C:\MCC18\v3_39\src\traditional\proc\p18F2620.asm
                    PORTB   0x000f81       data     extern C:\MCC18\v3_39\src\traditional\proc\p18F2620.asm
                PORTBbits   0x000f81       data     extern C:\MCC18\v3_39\src\traditional\proc\p18F2620.asm
                    PORTC   0x000f82       data     extern C:\MCC18\v3_39\src\traditional\proc\p18F2620.asm
                PORTCbits   0x000f82       data     extern C:\MCC18\v3_39\src\traditional\proc\p18F2620.asm
                    PORTE   0x000f84       data     extern C:\MCC18\v3_39\src\traditional\proc\p18F2620.asm
                PORTEbits   0x000f84       data     extern C:\MCC18\v3_39\src\traditional\proc\p18F2620.asm
                 POSTDEC0   0x000fed       data     extern C:\MCC18\v3_39\src\traditional\proc\p18F2620.asm
                 POSTDEC1   0x000fe5       data     extern C:\MCC18\v3_39\src\traditional\proc\p18F2620.asm
                 POSTDEC2   0x000fdd       data     extern C:\MCC18\v3_39\src\traditional\proc\p18F2620.asm
                 POSTINC0   0x000fee       data     extern C:\MCC18\v3_39\src\traditional\proc\p18F2620.asm
                 POSTINC1   0x000fe6       data     extern C:\MCC18\v3_39\src\traditional\proc\p18F2620.asm
                 POSTINC2   0x000fde       data     extern C:\MCC18\v3_39\src\traditional\proc\p18F2620.asm
                      PR2   0x000fcb       data     extern C:\MCC18\v3_39\src\traditional\proc\p18F2620.asm
                  PREINC0   0x000fec       data     extern C:\MCC18\v3_39\src\traditional\proc\p18F2620.asm
                  PREINC1   0x000fe4       data     extern C:\MCC18\v3_39\src\traditional\proc\p18F2620.asm
                  PREINC2   0x000fdc       data     extern C:\MCC18\v3_39\src\traditional\proc\p18F2620.asm
                     PROD   0x000ff3       data     extern C:\MCC18\v3_39\src\traditional\proc\p18F2620.asm
                    PRODH   0x000ff4       data     extern C:\MCC18\v3_39\src\traditional\proc\p18F2620.asm
                    PRODL   0x000ff3       data     extern C:\MCC18\v3_39\src\traditional\proc\p18F2620.asm
                  PWM1CON   0x000fb7       data     extern C:\MCC18\v3_39\src\traditional\proc\p18F2620.asm
              PWM1CONbits   0x000fb7       data     extern C:\MCC18\v3_39\src\traditional\proc\p18F2620.asm
                     RCON   0x000fd0       data     extern C:\MCC18\v3_39\src\traditional\proc\p18F2620.asm
                 RCONbits   0x000fd0       data     extern C:\MCC18\v3_39\src\traditional\proc\p18F2620.asm
                    RCREG   0x000fae       data     extern C:\MCC18\v3_39\src\traditional\proc\p18F2620.asm
                    RCSTA   0x000fab       data     extern C:\MCC18\v3_39\src\traditional\proc\p18F2620.asm
                RCSTAbits   0x000fab       data     extern C:\MCC18\v3_39\src\traditional\proc\p18F2620.asm
                      Rho   0x000008       data     static /storage/PicStuff/RFSupply/rf_manager/rf_manager.c
                     SIGN   0x000023       data     extern C:\MCC18\v3_39\src\traditional\math\cmath18.asm
                    SPBRG   0x000faf       data     extern C:\MCC18\v3_39\src\traditional\proc\p18F2620.asm
                   SPBRGH   0x000fb0       data     extern C:\MCC18\v3_39\src\traditional\proc\p18F2620.asm
                   SSPADD   0x000fc8       data     extern C:\MCC18\v3_39\src\traditional\proc\p18F2620.asm
                   SSPBUF   0x000fc9       data     extern C:\MCC18\v3_39\src\traditional\proc\p18F2620.asm
                  SSPCON1   0x000fc6       data     extern C:\MCC18\v3_39\src\traditional\proc\p18F2620.asm
              SSPCON1bits   0x000fc6       data     extern C:\MCC18\v3_39\src\traditional\proc\p18F2620.asm
                  SSPCON2   0x000fc5       data     extern C:\MCC18\v3_39\src\traditional\proc\p18F2620.asm
              SSPCON2bits   0x000fc5       data     extern C:\MCC18\v3_39\src\traditional\proc\p18F2620.asm
                  SSPSTAT   0x000fc7       data     extern C:\MCC18\v3_39\src\traditional\proc\p18F2620.asm
              SSPSTATbits   0x000fc7       data     extern C:\MCC18\v3_39\src\traditional\proc\p18F2620.asm
                   STATUS   0x000fd8       data     extern C:\MCC18\v3_39\src\traditional\proc\p18F2620.asm
               STATUSbits   0x000fd8       data     extern C:\MCC18\v3_39\src\traditional\proc\p18F2620.asm
                   STKPTR   0x000ffc       data     extern C:\MCC18\v3_39\src\traditional\proc\p18F2620.asm
               STKPTRbits   0x000ffc       data     extern C:\MCC18\v3_39\src\traditional\proc\p18F2620.asm
                    T0CON   0x000fd5       data     extern C:\MCC18\v3_39\src\traditional\proc\p18F2620.asm
                T0CONbits   0x000fd5       data     extern C:\MCC18\v3_39\src\traditional\proc\p18F2620.asm
                    T1CON   0x000fcd       data     extern C:\MCC18\v3_39\src\traditional\proc\p18F2620.asm
                T1CONbits   0x000fcd       data     extern C:\MCC18\v3_39\src\traditional\proc\p18F2620.asm
                    T2CON   0x000fca       data     extern C:\MCC18\v3_39\src\traditional\proc\p18F2620.asm
                T2CONbits   0x000fca       data     extern C:\MCC18\v3_39\src\traditional\proc\p18F2620.asm
                    T3CON   0x000fb1       data     extern C:\MCC18\v3_39\src\traditional\proc\p18F2620.asm
                T3CONbits   0x000fb1       data     extern C:\MCC18\v3_39\src\traditional\proc\p18F2620.asm
                   TABLAT   0x000ff5       data     extern C:\MCC18\v3_39\src\traditional\proc\p18F2620.asm
                   TBLPTR   0x000ff6       data     extern C:\MCC18\v3_39\src\traditional\proc\p18F2620.asm
                  TBLPTRH   0x000ff7       data     extern C:\MCC18\v3_39\src\traditional\proc\p18F2620.asm
                  TBLPTRL   0x000ff6       data     extern C:\MCC18\v3_39\src\traditional\proc\p18F2620.asm
                  TBLPTRU   0x000ff8       data     extern C:\MCC18\v3_39\src\traditional\proc\p18F2620.asm
                    TMR0H   0x000fd7       data     extern C:\MCC18\v3_39\src\traditional\proc\p18F2620.asm
                    TMR0L   0x000fd6       data     extern C:\MCC18\v3_39\src\traditional\proc\p18F2620.asm
                    TMR1H   0x000fcf       data     extern C:\MCC18\v3_39\src\traditional\proc\p18F2620.asm
                    TMR1L   0x000fce       data     extern C:\MCC18\v3_39\src\traditional\proc\p18F2620.asm
                     TMR2   0x000fcc       data     extern C:\MCC18\v3_39\src\traditional\proc\p18F2620.asm
                    TMR3H   0x000fb3       data     extern C:\MCC18\v3_39\src\traditional\proc\p18F2620.asm
                    TMR3L   0x000fb2       data     extern C:\MCC18\v3_39\src\traditional\proc\p18F2620.asm
                      TOS   0x000ffd       data     extern C:\MCC18\v3_39\src\traditional\proc\p18F2620.asm
                     TOSH   0x000ffe       data     extern C:\MCC18\v3_39\src\traditional\proc\p18F2620.asm
                     TOSL   0x000ffd       data     extern C:\MCC18\v3_39\src\traditional\proc\p18F2620.asm
                     TOSU   0x000fff       data     extern C:\MCC18\v3_39\src\traditional\proc\p18F2620.asm
                    TRISA   0x000f92       data     extern C:\MCC18\v3_39\src\traditional\proc\p18F2620.asm
                TRISAbits   0x000f92       data     extern C:\MCC18\v3_39\src\traditional\proc\p18F2620.asm
                    TRISB   0x000f93       data     extern C:\MCC18\v3_39\src\traditional\proc\p18F2620.asm
                TRISBbits   0x000f93       data     extern C:\MCC18\v3_39\src\traditional\proc\p18F2620.asm
                    TRISC   0x000f94       data     extern C:\MCC18\v3_39\src\traditional\proc\p18F2620.asm
                TRISCbits   0x000f94       data     extern C:\MCC18\v3_39\src\traditional\proc\p18F2620.asm
                    TXREG   0x000fad       data     extern C:\MCC18\v3_39\src\traditional\proc\p18F2620.asm
                    TXSTA   0x000fac       data     extern C:\MCC18\v3_39\src\traditional\proc\p18F2620.asm
                TXSTAbits   0x000fac       data     extern C:\MCC18\v3_39\src\traditional\proc\p18F2620.asm
                        W   0x000fe8       data     extern C:\MCC18\v3_39\src\traditional\proc\p18F2620.asm
                   WDTCON   0x000fd1       data     extern C:\MCC18\v3_39\src\traditional\proc\p18F2620.asm
               WDTCONbits   0x000fd1       data     extern C:\MCC18\v3_39\src\traditional\proc\p18F2620.asm
                     WREG   0x000fe8       data     extern C:\MCC18\v3_39\src\traditional\proc\p18F2620.asm
                 __AARGB0   0x00002c       data     extern C:\MCC18\v3_39\src\traditional\math\aarg.asm
                 __AARGB1   0x00002b       data     extern C:\MCC18\v3_39\src\traditional\math\aarg.asm
                 __AARGB2   0x00002a       data     extern C:\MCC18\v3_39\src\traditional\math\aarg.asm
                 __AARGB3   0x000029       data     extern C:\MCC18\v3_39\src\traditional\math\aarg.asm
                 __AARGB4   0x000028       data     extern C:\MCC18\v3_39\src\traditional\math\aarg.asm
                 __AARGB5   0x000027       data     extern C:\MCC18\v3_39\src\traditional\math\aarg.asm
                 __AARGB6   0x000026       data     extern C:\MCC18\v3_39\src\traditional\math\aarg.asm
                 __AARGB7   0x000025       data     extern C:\MCC18\v3_39\src\traditional\math\aarg.asm
                   __AEXP   0x00002d       data     extern C:\MCC18\v3_39\src\traditional\math\aarg.asm
                 __BARGB0   0x000031       data     extern C:\MCC18\v3_39\src\traditional\math\barg.asm
                 __BARGB1   0x000030       data     extern C:\MCC18\v3_39\src\traditional\math\barg.asm
                 __BARGB2   0x00002f       data     extern C:\MCC18\v3_39\src\traditional\math\barg.asm
                 __BARGB3   0x00002e       data     extern C:\MCC18\v3_39\src\traditional\math\barg.asm
                   __BEXP   0x000032       data     extern C:\MCC18\v3_39\src\traditional\math\barg.asm
                __FPFLAGS   0x000024       data     extern C:\MCC18\v3_39\src\traditional\math\cmath18.asm
            __FPFLAGSbits   0x000024       data     extern C:\MCC18\v3_39\src\traditional\math\cmath18.asm
                  __REMB0   0x000028       data     extern C:\MCC18\v3_39\src\traditional\math\aarg.asm
                  __REMB1   0x000027       data     extern C:\MCC18\v3_39\src\traditional\math\aarg.asm
                  __REMB2   0x000026       data     extern C:\MCC18\v3_39\src\traditional\math\aarg.asm
                  __REMB3   0x000025       data     extern C:\MCC18\v3_39\src\traditional\math\aarg.asm
                   __TEMP   0x000036       data     extern C:\MCC18\v3_39\src\traditional\math\temparg.asm
                 __TEMPB0   0x000036       data     extern C:\MCC18\v3_39\src\traditional\math\temparg.asm
                 __TEMPB1   0x000035       data     extern C:\MCC18\v3_39\src\traditional\math\temparg.asm
                 __TEMPB2   0x000034       data     extern C:\MCC18\v3_39\src\traditional\math\temparg.asm
                 __TEMPB3   0x000033       data     extern C:\MCC18\v3_39\src\traditional\math\temparg.asm
                  __tmp_0   0x000061       data     static /storage/PicStuff/RFSupply/lcd/lcd.c
                  __tmp_0   0x000061       data     static /storage/PicStuff/RFSupply/logger/logger.c
                  __tmp_0   0x000061       data     static /storage/PicStuff/RFSupply/helpers/helpers.c
                  __tmp_0   0x000061       data     static /storage/PicStuff/RFSupply/encoder/encoder.c
                  __tmp_0   0x000061       data     static /storage/PicStuff/RFSupply/menu/menu.c
                  __tmp_0   0x000061       data     static /storage/PicStuff/RFSupply/power_manager/power_manager.c
                  __tmp_0   0x000061       data     static /storage/PicStuff/RFSupply/eeprom/eeprom.c
                  __tmp_0   0x000061       data     static /storage/PicStuff/RFSupply/config_manager/config_editor.c
                  __tmp_0   0x000061       data     static /storage/PicStuff/RFSupply/rf_manager/rf_manager.c
                  __tmp_0   0x000061       data     static /storage/PicStuff/RFSupply/languages/languages.c
                  __tmp_0   0x000061       data     static /storage/PicStuff/RFSupply/config_manager/config_memory.c
                  __tmp_0   0x000061       data     static /storage/PicStuff/RFSupply/uart/uart.c
                  __tmp_0   0x000061       data     static /storage/PicStuff/RFSupply/uart/uart_fifo.c
                  __tmp_0   0x000061       data     static /storage/PicStuff/RFSupply/infodisplay/infodisplay.c
                  __tmp_1   0x000069       data     static /storage/PicStuff/RFSupply/interrupt/interrupt.c
            active_config   0x000208       data     extern /storage/PicStuff/RFSupply/config_manager/config_memory.c
                      adc   0x00005e       data     static /storage/PicStuff/RFSupply/interrupt/interrupt.c
            adc_average_0   0x0002f0       data     extern /storage/PicStuff/RFSupply/adc/adc.c
            adc_average_1   0x0002f2       data     extern /storage/PicStuff/RFSupply/adc/adc.c
            adc_average_2   0x0002f4       data     extern /storage/PicStuff/RFSupply/adc/adc.c
                  adc_chn   0x0002ef       data     extern /storage/PicStuff/RFSupply/adc/adc.c
                  adc_idx   0x0002ee       data     extern /storage/PicStuff/RFSupply/adc/adc.c
            adc_results_0   0x00028e       data     extern /storage/PicStuff/RFSupply/adc/adc.c
            adc_results_1   0x0002ae       data     extern /storage/PicStuff/RFSupply/adc/adc.c
            adc_results_2   0x0002ce       data     extern /storage/PicStuff/RFSupply/adc/adc.c
               addr_short   0x00031d       data     static /storage/PicStuff/RFSupply/eeprom/eeprom.c
                      adr   0x000f43       data     static /storage/PicStuff/RFSupply/lcd/lcd.c
         backlight_config   0x00004d       data     static /storage/PicStuff/RFSupply/lcd/backlight.c
          backlight_count   0x000050       data     static /storage/PicStuff/RFSupply/lcd/backlight.c
        backlight_current   0x000054       data     static /storage/PicStuff/RFSupply/lcd/backlight.c
   backlight_is_temp_mode   0x000055       data     static /storage/PicStuff/RFSupply/lcd/backlight.c
          backlight_level   0x00004e       data     static /storage/PicStuff/RFSupply/lcd/backlight.c
          backlight_speed   0x000052       data     static /storage/PicStuff/RFSupply/lcd/backlight.c
         backlight_target   0x00004f       data     static /storage/PicStuff/RFSupply/lcd/backlight.c
                 baudrate   0x00032a       data     static /storage/PicStuff/RFSupply/uart/uart.c
                   button   0x000042       data     static /storage/PicStuff/RFSupply/encoder/encoder.c
               button_cnt   0x00003d       data     static /storage/PicStuff/RFSupply/encoder/encoder.c
            button_sample   0x000040       data     static /storage/PicStuff/RFSupply/encoder/encoder.c
             button_state   0x000041       data     static /storage/PicStuff/RFSupply/encoder/encoder.c
              cfg_mem_crc   0x000278       data     static /storage/PicStuff/RFSupply/config_manager/config_memory.c
                 cfg_name   0x00027c       data     static /storage/PicStuff/RFSupply/config_manager/config_memory.c
                      cnt   0x000329       data     static /storage/PicStuff/RFSupply/config_manager/config_manager.c
                      cnt   0x000f3a       data     static /storage/PicStuff/RFSupply/lcd/lcd.c
                      cnt   0x000f3c       data     static /storage/PicStuff/RFSupply/lcd/lcd.c
                      cnt   0x0002fc       data     static /storage/PicStuff/RFSupply/uart/uart_fifo.c
                      cnt   0x00028d       data     static /storage/PicStuff/RFSupply/config_manager/config_memory.c
                     cnt1   0x000323       data     static /storage/PicStuff/RFSupply/hardware/hardware.c
                     cnt1   0x000f3e       data     static /storage/PicStuff/RFSupply/lcd/lcd.c
                     cnt2   0x000f42       data     static /storage/PicStuff/RFSupply/lcd/lcd.c
              config_data   0x0000b3       data     static /storage/PicStuff/RFSupply/config_manager/config_editor.c
   config_editor_callback   0x000080       data     static /storage/PicStuff/RFSupply/config_manager/config_editor.c
     config_editor_caller   0x0000ef       data     static /storage/PicStuff/RFSupply/config_manager/config_editor.c
             config_items   0x0000b5       data     static /storage/PicStuff/RFSupply/config_manager/config_editor.c
   config_named_selection   0x0000b7       data     static /storage/PicStuff/RFSupply/config_manager/config_editor.c
config_named_selection_enum   0x0000b9       data     static /storage/PicStuff/RFSupply/config_manager/config_editor.c
         config_selection   0x0000bd       data     static /storage/PicStuff/RFSupply/config_manager/config_editor.c
   config_selection_stack   0x0000a2       data     static /storage/PicStuff/RFSupply/config_manager/config_editor.c
             config_stack   0x000082       data     static /storage/PicStuff/RFSupply/config_manager/config_editor.c
        config_stackindex   0x0000b2       data     static /storage/PicStuff/RFSupply/config_manager/config_editor.c
        config_value_item   0x0000bb       data     static /storage/PicStuff/RFSupply/config_manager/config_editor.c
              cur_encoder   0x0000c6       data     static /storage/PicStuff/RFSupply/config_manager/config_editor.c
       cur_encoder_button   0x0000c8       data     static /storage/PicStuff/RFSupply/config_manager/config_editor.c
                    cur_k   0x00003f       data     static /storage/PicStuff/RFSupply/encoder/encoder.c
                 cur_mode   0x000f7a       data     static /storage/PicStuff/RFSupply/infodisplay/infodisplay.c
                  cur_pwr   0x000f7d       data     static /storage/PicStuff/RFSupply/infodisplay/infodisplay.c
              cur_rx_char   0x00005c       data     static /storage/PicStuff/RFSupply/interrupt/interrupt.c
                cur_state   0x000f78       data     static /storage/PicStuff/RFSupply/infodisplay/infodisplay.c
                  cur_tip   0x000f5e       data     static /storage/PicStuff/RFSupply/power_manager/power_manager.c
                curr_byte   0x0000f6       data     static C:\MCC18\v3_39\src\traditional\startup\c018i.c
               curr_entry   0x0000f8       data     static C:\MCC18\v3_39\src\traditional\startup\c018i.c
   current_config_strings   0x000312       data     extern /storage/PicStuff/RFSupply/languages/languages.c
             current_lang   0x000314       data     static /storage/PicStuff/RFSupply/languages/languages.c
             current_menu   0x000f31       data     static /storage/PicStuff/RFSupply/menu/menu.c
       current_menu_entry   0x000f33       data     static /storage/PicStuff/RFSupply/menu/menu.c
     current_menu_strings   0x000310       data     extern /storage/PicStuff/RFSupply/languages/languages.c
          current_strings   0x00030e       data     extern /storage/PicStuff/RFSupply/languages/languages.c
                 data_crc   0x000327       data     static /storage/PicStuff/RFSupply/config_manager/config_manager.c
                 data_ptr   0x0000fa       data     static C:\MCC18\v3_39\src\traditional\startup\c018i.c
                      div   0x000309       data     static /storage/PicStuff/RFSupply/helpers/helpers.c
                dummychar   0x0000c1       data     static /storage/PicStuff/RFSupply/config_manager/config_editor.c
               dummyshort   0x0000c4       data     static /storage/PicStuff/RFSupply/config_manager/config_editor.c
              edit_config   0x000240       data     extern /storage/PicStuff/RFSupply/config_manager/config_memory.c
                   ee_cnt   0x00031b       data     static /storage/PicStuff/RFSupply/eeprom/eeprom.c
              encoder_cnt   0x00003c       data     static /storage/PicStuff/RFSupply/encoder/encoder.c
              encoder_val   0x000037       data     static /storage/PicStuff/RFSupply/encoder/encoder.c
                   enctab   0x000f66       data     static /storage/PicStuff/RFSupply/encoder/encoder.c
                entry_val   0x0000c9       data     static /storage/PicStuff/RFSupply/config_manager/config_editor.c
                     fval   0x000f4e       data     static /storage/PicStuff/RFSupply/lcd/lcd.c
                irq_mutex   0x000060       data     extern /storage/PicStuff/RFSupply/interrupt/interrupt.c
               logger_cfg   0x000315       data     static /storage/PicStuff/RFSupply/logger/logger.c
             logger_ticks   0x000316       data     static /storage/PicStuff/RFSupply/logger/logger.c
                       lz   0x000f39       data     static /storage/PicStuff/RFSupply/lcd/lcd.c
              main_config   0x000200       data     extern /storage/PicStuff/RFSupply/config_manager/config_memory.c
             max_combined   0x000f64       data     extern /storage/PicStuff/RFSupply/power_manager/power_manager.c
                 max_drop   0x000f62       data     extern /storage/PicStuff/RFSupply/power_manager/power_manager.c
                 max_rise   0x000f60       data     extern /storage/PicStuff/RFSupply/power_manager/power_manager.c
              menu_caller   0x000f36       data     static /storage/PicStuff/RFSupply/menu/menu.c
     menu_selection_stack   0x000f20       data     static /storage/PicStuff/RFSupply/menu/menu.c
               menu_stack   0x000f00       data     static /storage/PicStuff/RFSupply/menu/menu.c
          menu_stackindex   0x000f30       data     static /storage/PicStuff/RFSupply/menu/menu.c
                 menufunc   0x000f34       data     static /storage/PicStuff/RFSupply/menu/menu.c
                     mode   0x000018       data     static /storage/PicStuff/RFSupply/rf_manager/rf_manager.c
                   mticks   0x000045       data     static /storage/PicStuff/RFSupply/time/time.c
                       nc   0x000f44       data     static /storage/PicStuff/RFSupply/lcd/lcd.c
                       nc   0x000f47       data     static /storage/PicStuff/RFSupply/lcd/lcd.c
                       nc   0x000f4a       data     static /storage/PicStuff/RFSupply/lcd/lcd.c
                num_bytes   0x0002fe       data     static /storage/PicStuff/RFSupply/uart/uart_fifo.c
                  old_gie   0x00031a       data     static /storage/PicStuff/RFSupply/eeprom/eeprom.c
                    old_k   0x00003e       data     static /storage/PicStuff/RFSupply/encoder/encoder.c
                 old_mode   0x000f79       data     static /storage/PicStuff/RFSupply/infodisplay/infodisplay.c
               old_mticks   0x000049       data     static /storage/PicStuff/RFSupply/time/time.c
          old_power_delta   0x000016       data     static /storage/PicStuff/RFSupply/rf_manager/rf_manager.c
                  old_pwr   0x000010       data     static /storage/PicStuff/RFSupply/rf_manager/rf_manager.c
                  old_pwr   0x000f7b       data     static /storage/PicStuff/RFSupply/infodisplay/infodisplay.c
                old_state   0x000f77       data     static /storage/PicStuff/RFSupply/infodisplay/infodisplay.c
        old_state_encoder   0x00003a       data     static /storage/PicStuff/RFSupply/encoder/encoder.c
               old_supply   0x000012       data     static /storage/PicStuff/RFSupply/rf_manager/rf_manager.c
                  old_swr   0x00000e       data     static /storage/PicStuff/RFSupply/rf_manager/rf_manager.c
                  old_tip   0x000f5d       data     static /storage/PicStuff/RFSupply/power_manager/power_manager.c
           old_tip_status   0x00032e       data     static /storage/PicStuff/RFSupply/tip/tip_detect.c
                   old_vf   0x00000a       data     static /storage/PicStuff/RFSupply/rf_manager/rf_manager.c
                   old_vr   0x00000c       data     static /storage/PicStuff/RFSupply/rf_manager/rf_manager.c
                pm_button   0x000f5f       data     static /storage/PicStuff/RFSupply/power_manager/power_manager.c
             pm_old_state   0x000f56       data     static /storage/PicStuff/RFSupply/power_manager/power_manager.c
           pm_saved_state   0x000f57       data     static /storage/PicStuff/RFSupply/power_manager/power_manager.c
               pm_seconds   0x000f58       data     static /storage/PicStuff/RFSupply/power_manager/power_manager.c
                 pm_state   0x000f55       data     static /storage/PicStuff/RFSupply/power_manager/power_manager.c
                 pm_ticks   0x000f5c       data     static /storage/PicStuff/RFSupply/power_manager/power_manager.c
                      pos   0x000f54       data     static /storage/PicStuff/RFSupply/lcd/lcd.c
                      pos   0x000f4b       data     static /storage/PicStuff/RFSupply/lcd/lcd.c
              power_delta   0x000014       data     static /storage/PicStuff/RFSupply/rf_manager/rf_manager.c
                     prom   0x0000f3       data     static C:\MCC18\v3_39\src\traditional\startup\c018i.c
           read_num_bytes   0x0002ff       data     static /storage/PicStuff/RFSupply/uart/uart_fifo.c
                      rem   0x000305       data     static /storage/PicStuff/RFSupply/helpers/helpers.c
                remainder   0x000f4d       data     static /storage/PicStuff/RFSupply/lcd/lcd.c
                      res   0x000f38       data     static /storage/PicStuff/RFSupply/lcd/lcd.c
                      res   0x000f53       data     static /storage/PicStuff/RFSupply/lcd/lcd.c
                      res   0x00030d       data     static /storage/PicStuff/RFSupply/helpers/helpers.c
                      res   0x0002f6       data     static /storage/PicStuff/RFSupply/adc/adc.c
                      res   0x000321       data     static /storage/PicStuff/RFSupply/rf_manager/rf_manager.c
                      res   0x0000fd       data     static /storage/PicStuff/RFSupply/encoder/encoder.c
                  rf_data   0x000019       data     static /storage/PicStuff/RFSupply/rf_manager/rf_manager.c
                  rx_fifo   0x000100       data     extern /storage/PicStuff/RFSupply/uart/uart_fifo.c
             rx_fifo_fill   0x000058       data     extern /storage/PicStuff/RFSupply/uart/uart_fifo.c
         rx_fifo_read_pos   0x000057       data     extern /storage/PicStuff/RFSupply/uart/uart_fifo.c
        rx_fifo_write_pos   0x000056       data     extern /storage/PicStuff/RFSupply/uart/uart_fifo.c
                   rxbyte   0x0002fd       data     static /storage/PicStuff/RFSupply/uart/uart_fifo.c
               show_state   0x000f7f       data     static /storage/PicStuff/RFSupply/infodisplay/infodisplay.c
                signature   0x00027a       data     static /storage/PicStuff/RFSupply/config_manager/config_memory.c
                  skipper   0x00005d       data     static /storage/PicStuff/RFSupply/interrupt/interrupt.c
            state_encoder   0x000039       data     static /storage/PicStuff/RFSupply/encoder/encoder.c
                      str   0x000f45       data     static /storage/PicStuff/RFSupply/lcd/lcd.c
                      str   0x000f48       data     static /storage/PicStuff/RFSupply/lcd/lcd.c
           stringedit_pos   0x0000ce       data     static /storage/PicStuff/RFSupply/config_manager/config_editor.c
         stringedit_state   0x0000cd       data     static /storage/PicStuff/RFSupply/config_manager/config_editor.c
        stringedit_string   0x0000cf       data     static /storage/PicStuff/RFSupply/config_manager/config_editor.c
                        t   0x00031f       data     static /storage/PicStuff/RFSupply/rf_manager/rf_manager.c
                     tbar   0x000f76       data     static /storage/PicStuff/RFSupply/infodisplay/infodisplay.c
             temp_encoder   0x00003b       data     static /storage/PicStuff/RFSupply/encoder/encoder.c
               ticker_cnt   0x000043       data     static /storage/PicStuff/RFSupply/time/time.c
                time_data   0x000300       data     extern /storage/PicStuff/RFSupply/helpers/helpers.c
               tip_status   0x00006b       data     static /storage/PicStuff/RFSupply/tip/tip_detect.c
                   tmpvar   0x0000f2       data     static /storage/PicStuff/RFSupply/config_manager/config_editor.c
                   tmpvar   0x0000f1       data     static /storage/PicStuff/RFSupply/config_manager/config_editor.c
                     tval   0x0000ff       data     static /storage/PicStuff/RFSupply/encoder/encoder.c
                  tx_fifo   0x000180       data     extern /storage/PicStuff/RFSupply/uart/uart_fifo.c
             tx_fifo_fill   0x00005b       data     extern /storage/PicStuff/RFSupply/uart/uart_fifo.c
         tx_fifo_read_pos   0x00005a       data     extern /storage/PicStuff/RFSupply/uart/uart_fifo.c
        tx_fifo_write_pos   0x000059       data     extern /storage/PicStuff/RFSupply/uart/uart_fifo.c
                    uchar   0x000f4c       data     static /storage/PicStuff/RFSupply/lcd/lcd.c
                uchar_var   0x0000bf       data     static /storage/PicStuff/RFSupply/config_manager/config_editor.c
                   uifunc   0x00032c       data     extern /storage/PicStuff/RFSupply/main.c
                       ul   0x0002f8       data     static /storage/PicStuff/RFSupply/adc/adc.c
               ushort_var   0x0000c2       data     static /storage/PicStuff/RFSupply/config_manager/config_editor.c



                              Symbols - Sorted by Address
                     Name    Address   Location    Storage File                     
                ---------  ---------  ---------  --------- ---------                
                   _entry   0x000000    program     extern C:\MCC18\v3_39\src\traditional\startup\c018i.c
       ___return_lbl00000   0x000004    program     static                          
                   __init   0x000006    program     extern C:\MCC18\v3_39\src\traditional\stdclib\__init.c
                 high_isr   0x000008    program     extern /storage/PicStuff/RFSupply/interrupt/interrupt.c
       ___return_lbl00001   0x000010    program     static                          
                  low_isr   0x000018    program     extern /storage/PicStuff/RFSupply/interrupt/interrupt.c
      config_editor_start   0x000296    program     extern /storage/PicStuff/RFSupply/config_manager/config_editor.c
config_editor_editselected   0x000380    program     extern /storage/PicStuff/RFSupply/config_manager/config_editor.c
config_editor_saveselected   0x0003f4    program     extern /storage/PicStuff/RFSupply/config_manager/config_editor.c
config_editor_loadselected   0x00042e    program     extern /storage/PicStuff/RFSupply/config_manager/config_editor.c
 config_editor_editstring   0x00046c    program     extern /storage/PicStuff/RFSupply/config_manager/config_editor.c
config_editor_show_editstring   0x00050c    program     extern /storage/PicStuff/RFSupply/config_manager/config_editor.c
config_editor_set_current   0x000570    program     extern /storage/PicStuff/RFSupply/config_manager/config_editor.c
       config_editor_push   0x000824    program     extern /storage/PicStuff/RFSupply/config_manager/config_editor.c
        config_editor_pop   0x0008a0    program     extern /storage/PicStuff/RFSupply/config_manager/config_editor.c
       config_editor_exit   0x0008fe    program     extern /storage/PicStuff/RFSupply/config_manager/config_editor.c
 config_editor_update_var   0x000910    program     extern /storage/PicStuff/RFSupply/config_manager/config_editor.c
config_editor_set_current_valitem   0x000a94    program     extern /storage/PicStuff/RFSupply/config_manager/config_editor.c
            config_editor   0x000bde    program     extern /storage/PicStuff/RFSupply/config_manager/config_editor.c
        config_editor_val   0x000d1e    program     extern /storage/PicStuff/RFSupply/config_manager/config_editor.c
config_editor_configselector   0x000f80    program     extern /storage/PicStuff/RFSupply/config_manager/config_editor.c
config_editor_stringeditor   0x00109e    program     extern /storage/PicStuff/RFSupply/config_manager/config_editor.c
         config_show_name   0x001280    program     extern /storage/PicStuff/RFSupply/config_manager/config_editor.c
        config_show_entry   0x0012f0    program     extern /storage/PicStuff/RFSupply/config_manager/config_editor.c
   config_show_configname   0x0015ac    program     extern /storage/PicStuff/RFSupply/config_manager/config_editor.c
        config_show_value   0x00176a    program     extern /storage/PicStuff/RFSupply/config_manager/config_editor.c
               __string_1   0x001906    program     static /storage/PicStuff/RFSupply/config_manager/config_memory.c
               __string_0   0x001917    program     static /storage/PicStuff/RFSupply/config_manager/config_memory.c
               __string_2   0x001928    program     static /storage/PicStuff/RFSupply/config_manager/config_editor.c
               __string_1   0x00192b    program     static /storage/PicStuff/RFSupply/config_manager/config_editor.c
               __string_0   0x00192d    program     static /storage/PicStuff/RFSupply/config_manager/config_editor.c
               __string_3   0x00192f    program     static /storage/PicStuff/RFSupply/infodisplay/infodisplay.c
               __string_2   0x00193f    program     static /storage/PicStuff/RFSupply/infodisplay/infodisplay.c
               __string_1   0x001948    program     static /storage/PicStuff/RFSupply/infodisplay/infodisplay.c
               __string_0   0x001951    program     static /storage/PicStuff/RFSupply/infodisplay/infodisplay.c
               __string_0   0x001962    program     static /storage/PicStuff/RFSupply/languages/languages.c
             __string_292   0x001987    program     static /storage/PicStuff/RFSupply/languages/languages_strings.c
             __string_291   0x001997    program     static /storage/PicStuff/RFSupply/languages/languages_strings.c
             __string_290   0x0019a6    program     static /storage/PicStuff/RFSupply/languages/languages_strings.c
             __string_289   0x0019b7    program     static /storage/PicStuff/RFSupply/languages/languages_strings.c
             __string_288   0x0019c7    program     static /storage/PicStuff/RFSupply/languages/languages_strings.c
             __string_287   0x0019d8    program     static /storage/PicStuff/RFSupply/languages/languages_strings.c
             __string_286   0x0019e9    program     static /storage/PicStuff/RFSupply/languages/languages_strings.c
             __string_285   0x0019f9    program     static /storage/PicStuff/RFSupply/languages/languages_strings.c
             __string_284   0x001a0a    program     static /storage/PicStuff/RFSupply/languages/languages_strings.c
             __string_283   0x001a1a    program     static /storage/PicStuff/RFSupply/languages/languages_strings.c
             __string_282   0x001a2b    program     static /storage/PicStuff/RFSupply/languages/languages_strings.c
             __string_281   0x001a3c    program     static /storage/PicStuff/RFSupply/languages/languages_strings.c
             __string_280   0x001a45    program     static /storage/PicStuff/RFSupply/languages/languages_strings.c
             __string_279   0x001a50    program     static /storage/PicStuff/RFSupply/languages/languages_strings.c
             __string_278   0x001a59    program     static /storage/PicStuff/RFSupply/languages/languages_strings.c
             __string_277   0x001a67    program     static /storage/PicStuff/RFSupply/languages/languages_strings.c
             __string_276   0x001a73    program     static /storage/PicStuff/RFSupply/languages/languages_strings.c
             __string_275   0x001a80    program     static /storage/PicStuff/RFSupply/languages/languages_strings.c
             __string_274   0x001a91    program     static /storage/PicStuff/RFSupply/languages/languages_strings.c
             __string_273   0x001aa1    program     static /storage/PicStuff/RFSupply/languages/languages_strings.c
             __string_272   0x001ab2    program     static /storage/PicStuff/RFSupply/languages/languages_strings.c
             __string_271   0x001ac3    program     static /storage/PicStuff/RFSupply/languages/languages_strings.c
             __string_270   0x001ad1    program     static /storage/PicStuff/RFSupply/languages/languages_strings.c
             __string_269   0x001adf    program     static /storage/PicStuff/RFSupply/languages/languages_strings.c
             __string_268   0x001aef    program     static /storage/PicStuff/RFSupply/languages/languages_strings.c
             __string_267   0x001b00    program     static /storage/PicStuff/RFSupply/languages/languages_strings.c
             __string_266   0x001b11    program     static /storage/PicStuff/RFSupply/languages/languages_strings.c
             __string_265   0x001b22    program     static /storage/PicStuff/RFSupply/languages/languages_strings.c
             __string_264   0x001b33    program     static /storage/PicStuff/RFSupply/languages/languages_strings.c
             __string_263   0x001b40    program     static /storage/PicStuff/RFSupply/languages/languages_strings.c
             __string_262   0x001b50    program     static /storage/PicStuff/RFSupply/languages/languages_strings.c
             __string_261   0x001b61    program     static /storage/PicStuff/RFSupply/languages/languages_strings.c
             __string_260   0x001b71    program     static /storage/PicStuff/RFSupply/languages/languages_strings.c
             __string_259   0x001b81    program     static /storage/PicStuff/RFSupply/languages/languages_strings.c
             __string_258   0x001b92    program     static /storage/PicStuff/RFSupply/languages/languages_strings.c
             __string_257   0x001ba2    program     static /storage/PicStuff/RFSupply/languages/languages_strings.c
             __string_256   0x001bb2    program     static /storage/PicStuff/RFSupply/languages/languages_strings.c
             __string_255   0x001bc1    program     static /storage/PicStuff/RFSupply/languages/languages_strings.c
             __string_254   0x001bd2    program     static /storage/PicStuff/RFSupply/languages/languages_strings.c
             __string_253   0x001be1    program     static /storage/PicStuff/RFSupply/languages/languages_strings.c
             __string_252   0x001be6    program     static /storage/PicStuff/RFSupply/languages/languages_strings.c
             __string_251   0x001bf7    program     static /storage/PicStuff/RFSupply/languages/languages_strings.c
             __string_250   0x001c08    program     static /storage/PicStuff/RFSupply/languages/languages_strings.c
             __string_249   0x001c17    program     static /storage/PicStuff/RFSupply/languages/languages_strings.c
             __string_248   0x001c28    program     static /storage/PicStuff/RFSupply/languages/languages_strings.c
             __string_247   0x001c36    program     static /storage/PicStuff/RFSupply/languages/languages_strings.c
             __string_246   0x001c45    program     static /storage/PicStuff/RFSupply/languages/languages_strings.c
             __string_245   0x001c53    program     static /storage/PicStuff/RFSupply/languages/languages_strings.c
             __string_244   0x001c5f    program     static /storage/PicStuff/RFSupply/languages/languages_strings.c
             __string_243   0x001c6f    program     static /storage/PicStuff/RFSupply/languages/languages_strings.c
             __string_242   0x001c7f    program     static /storage/PicStuff/RFSupply/languages/languages_strings.c
             __string_241   0x001c8f    program     static /storage/PicStuff/RFSupply/languages/languages_strings.c
             __string_240   0x001ca0    program     static /storage/PicStuff/RFSupply/languages/languages_strings.c
             __string_239   0x001cb0    program     static /storage/PicStuff/RFSupply/languages/languages_strings.c
             __string_238   0x001cbd    program     static /storage/PicStuff/RFSupply/languages/languages_strings.c
             __string_237   0x001cce    program     static /storage/PicStuff/RFSupply/languages/languages_strings.c
             __string_236   0x001cde    program     static /storage/PicStuff/RFSupply/languages/languages_strings.c
             __string_235   0x001cea    program     static /storage/PicStuff/RFSupply/languages/languages_strings.c
             __string_234   0x001cf6    program     static /storage/PicStuff/RFSupply/languages/languages_strings.c
             __string_233   0x001d00    program     static /storage/PicStuff/RFSupply/languages/languages_strings.c
             __string_232   0x001d0f    program     static /storage/PicStuff/RFSupply/languages/languages_strings.c
             __string_231   0x001d1e    program     static /storage/PicStuff/RFSupply/languages/languages_strings.c
             __string_230   0x001d2b    program     static /storage/PicStuff/RFSupply/languages/languages_strings.c
             __string_229   0x001d35    program     static /storage/PicStuff/RFSupply/languages/languages_strings.c
             __string_228   0x001d3e    program     static /storage/PicStuff/RFSupply/languages/languages_strings.c
             __string_227   0x001d46    program     static /storage/PicStuff/RFSupply/languages/languages_strings.c
             __string_226   0x001d51    program     static /storage/PicStuff/RFSupply/languages/languages_strings.c
             __string_225   0x001d62    program     static /storage/PicStuff/RFSupply/languages/languages_strings.c
             __string_224   0x001d6d    program     static /storage/PicStuff/RFSupply/languages/languages_strings.c
             __string_223   0x001d76    program     static /storage/PicStuff/RFSupply/languages/languages_strings.c
             __string_222   0x001d84    program     static /storage/PicStuff/RFSupply/languages/languages_strings.c
             __string_221   0x001d92    program     static /storage/PicStuff/RFSupply/languages/languages_strings.c
             __string_220   0x001da3    program     static /storage/PicStuff/RFSupply/languages/languages_strings.c
             __string_219   0x001db2    program     static /storage/PicStuff/RFSupply/languages/languages_strings.c
             __string_218   0x001dc3    program     static /storage/PicStuff/RFSupply/languages/languages_strings.c
             __string_217   0x001dce    program     static /storage/PicStuff/RFSupply/languages/languages_strings.c
             __string_216   0x001dde    program     static /storage/PicStuff/RFSupply/languages/languages_strings.c
             __string_215   0x001ded    program     static /storage/PicStuff/RFSupply/languages/languages_strings.c
             __string_214   0x001df9    program     static /storage/PicStuff/RFSupply/languages/languages_strings.c
             __string_213   0x001e0a    program     static /storage/PicStuff/RFSupply/languages/languages_strings.c
             __string_212   0x001e17    program     static /storage/PicStuff/RFSupply/languages/languages_strings.c
             __string_211   0x001e20    program     static /storage/PicStuff/RFSupply/languages/languages_strings.c
             __string_210   0x001e30    program     static /storage/PicStuff/RFSupply/languages/languages_strings.c
             __string_209   0x001e40    program     static /storage/PicStuff/RFSupply/languages/languages_strings.c
             __string_208   0x001e4a    program     static /storage/PicStuff/RFSupply/languages/languages_strings.c
             __string_207   0x001e54    program     static /storage/PicStuff/RFSupply/languages/languages_strings.c
             __string_206   0x001e5d    program     static /storage/PicStuff/RFSupply/languages/languages_strings.c
             __string_205   0x001e68    program     static /storage/PicStuff/RFSupply/languages/languages_strings.c
             __string_204   0x001e6f    program     static /storage/PicStuff/RFSupply/languages/languages_strings.c
             __string_203   0x001e80    program     static /storage/PicStuff/RFSupply/languages/languages_strings.c
             __string_202   0x001e90    program     static /storage/PicStuff/RFSupply/languages/languages_strings.c
             __string_201   0x001ea1    program     static /storage/PicStuff/RFSupply/languages/languages_strings.c
             __string_200   0x001eb1    program     static /storage/PicStuff/RFSupply/languages/languages_strings.c
             __string_199   0x001ebb    program     static /storage/PicStuff/RFSupply/languages/languages_strings.c
             __string_198   0x001ec0    program     static /storage/PicStuff/RFSupply/languages/languages_strings.c
             __string_197   0x001eca    program     static /storage/PicStuff/RFSupply/languages/languages_strings.c
             __string_196   0x001ed0    program     static /storage/PicStuff/RFSupply/languages/languages_strings.c
             __string_195   0x001ed8    program     static /storage/PicStuff/RFSupply/languages/languages_strings.c
             __string_194   0x001edc    program     static /storage/PicStuff/RFSupply/languages/languages_strings.c
             __string_193   0x001ef6    program     static /storage/PicStuff/RFSupply/languages/languages_strings.c
             __string_192   0x001f11    program     static /storage/PicStuff/RFSupply/languages/languages_strings.c
             __string_191   0x001f30    program     static /storage/PicStuff/RFSupply/languages/languages_strings.c
             __string_190   0x001f43    program     static /storage/PicStuff/RFSupply/languages/languages_strings.c
             __string_189   0x001f4d    program     static /storage/PicStuff/RFSupply/languages/languages_strings.c
             __string_188   0x001f60    program     static /storage/PicStuff/RFSupply/languages/languages_strings.c
             __string_187   0x001f6d    program     static /storage/PicStuff/RFSupply/languages/languages_strings.c
             __string_186   0x001f7b    program     static /storage/PicStuff/RFSupply/languages/languages_strings.c
             __string_185   0x001f91    program     static /storage/PicStuff/RFSupply/languages/languages_strings.c
             __string_184   0x001fa4    program     static /storage/PicStuff/RFSupply/languages/languages_strings.c
             __string_183   0x001fbb    program     static /storage/PicStuff/RFSupply/languages/languages_strings.c
             __string_182   0x001fcd    program     static /storage/PicStuff/RFSupply/languages/languages_strings.c
             __string_181   0x001fdb    program     static /storage/PicStuff/RFSupply/languages/languages_strings.c
             __string_180   0x001ff9    program     static /storage/PicStuff/RFSupply/languages/languages_strings.c
             __string_179   0x002016    program     static /storage/PicStuff/RFSupply/languages/languages_strings.c
             __string_178   0x002032    program     static /storage/PicStuff/RFSupply/languages/languages_strings.c
             __string_177   0x002058    program     static /storage/PicStuff/RFSupply/languages/languages_strings.c
             __string_176   0x00207d    program     static /storage/PicStuff/RFSupply/languages/languages_strings.c
             __string_175   0x0020a0    program     static /storage/PicStuff/RFSupply/languages/languages_strings.c
             __string_174   0x0020c2    program     static /storage/PicStuff/RFSupply/languages/languages_strings.c
             __string_173   0x0020d9    program     static /storage/PicStuff/RFSupply/languages/languages_strings.c
             __string_172   0x0020f8    program     static /storage/PicStuff/RFSupply/languages/languages_strings.c
             __string_171   0x002116    program     static /storage/PicStuff/RFSupply/languages/languages_strings.c
             __string_170   0x00212f    program     static /storage/PicStuff/RFSupply/languages/languages_strings.c
             __string_169   0x00214a    program     static /storage/PicStuff/RFSupply/languages/languages_strings.c
             __string_168   0x002156    program     static /storage/PicStuff/RFSupply/languages/languages_strings.c
             __string_167   0x00215d    program     static /storage/PicStuff/RFSupply/languages/languages_strings.c
             __string_166   0x002170    program     static /storage/PicStuff/RFSupply/languages/languages_strings.c
             __string_165   0x00217f    program     static /storage/PicStuff/RFSupply/languages/languages_strings.c
             __string_164   0x002190    program     static /storage/PicStuff/RFSupply/languages/languages_strings.c
             __string_163   0x0021a5    program     static /storage/PicStuff/RFSupply/languages/languages_strings.c
             __string_162   0x0021ad    program     static /storage/PicStuff/RFSupply/languages/languages_strings.c
             __string_161   0x0021bc    program     static /storage/PicStuff/RFSupply/languages/languages_strings.c
             __string_160   0x0021ca    program     static /storage/PicStuff/RFSupply/languages/languages_strings.c
             __string_159   0x0021db    program     static /storage/PicStuff/RFSupply/languages/languages_strings.c
             __string_158   0x0021eb    program     static /storage/PicStuff/RFSupply/languages/languages_strings.c
             __string_157   0x0021fb    program     static /storage/PicStuff/RFSupply/languages/languages_strings.c
             __string_156   0x002207    program     static /storage/PicStuff/RFSupply/languages/languages_strings.c
             __string_155   0x002218    program     static /storage/PicStuff/RFSupply/languages/languages_strings.c
             __string_154   0x002228    program     static /storage/PicStuff/RFSupply/languages/languages_strings.c
             __string_153   0x002238    program     static /storage/PicStuff/RFSupply/languages/languages_strings.c
             __string_152   0x002249    program     static /storage/PicStuff/RFSupply/languages/languages_strings.c
             __string_151   0x00225a    program     static /storage/PicStuff/RFSupply/languages/languages_strings.c
             __string_150   0x002263    program     static /storage/PicStuff/RFSupply/languages/languages_strings.c
             __string_149   0x00226b    program     static /storage/PicStuff/RFSupply/languages/languages_strings.c
             __string_148   0x002274    program     static /storage/PicStuff/RFSupply/languages/languages_strings.c
             __string_147   0x002284    program     static /storage/PicStuff/RFSupply/languages/languages_strings.c
             __string_146   0x002294    program     static /storage/PicStuff/RFSupply/languages/languages_strings.c
             __string_145   0x0022a5    program     static /storage/PicStuff/RFSupply/languages/languages_strings.c
             __string_144   0x0022b6    program     static /storage/PicStuff/RFSupply/languages/languages_strings.c
             __string_143   0x0022c6    program     static /storage/PicStuff/RFSupply/languages/languages_strings.c
             __string_142   0x0022d7    program     static /storage/PicStuff/RFSupply/languages/languages_strings.c
             __string_141   0x0022e8    program     static /storage/PicStuff/RFSupply/languages/languages_strings.c
             __string_140   0x0022f4    program     static /storage/PicStuff/RFSupply/languages/languages_strings.c
             __string_139   0x002302    program     static /storage/PicStuff/RFSupply/languages/languages_strings.c
             __string_138   0x002312    program     static /storage/PicStuff/RFSupply/languages/languages_strings.c
             __string_137   0x002323    program     static /storage/PicStuff/RFSupply/languages/languages_strings.c
             __string_136   0x002334    program     static /storage/PicStuff/RFSupply/languages/languages_strings.c
             __string_135   0x002345    program     static /storage/PicStuff/RFSupply/languages/languages_strings.c
             __string_134   0x002354    program     static /storage/PicStuff/RFSupply/languages/languages_strings.c
             __string_133   0x00235f    program     static /storage/PicStuff/RFSupply/languages/languages_strings.c
             __string_132   0x00236d    program     static /storage/PicStuff/RFSupply/languages/languages_strings.c
             __string_131   0x00237e    program     static /storage/PicStuff/RFSupply/languages/languages_strings.c
             __string_130   0x00238d    program     static /storage/PicStuff/RFSupply/languages/languages_strings.c
             __string_129   0x00239d    program     static /storage/PicStuff/RFSupply/languages/languages_strings.c
             __string_128   0x0023ae    program     static /storage/PicStuff/RFSupply/languages/languages_strings.c
             __string_127   0x0023be    program     static /storage/PicStuff/RFSupply/languages/languages_strings.c
             __string_126   0x0023cf    program     static /storage/PicStuff/RFSupply/languages/languages_strings.c
             __string_125   0x0023df    program     static /storage/PicStuff/RFSupply/languages/languages_strings.c
             __string_124   0x0023f0    program     static /storage/PicStuff/RFSupply/languages/languages_strings.c
             __string_123   0x002400    program     static /storage/PicStuff/RFSupply/languages/languages_strings.c
             __string_122   0x002406    program     static /storage/PicStuff/RFSupply/languages/languages_strings.c
             __string_121   0x002417    program     static /storage/PicStuff/RFSupply/languages/languages_strings.c
             __string_120   0x002423    program     static /storage/PicStuff/RFSupply/languages/languages_strings.c
             __string_119   0x00242f    program     static /storage/PicStuff/RFSupply/languages/languages_strings.c
             __string_118   0x00243c    program     static /storage/PicStuff/RFSupply/languages/languages_strings.c
             __string_117   0x002448    program     static /storage/PicStuff/RFSupply/languages/languages_strings.c
             __string_116   0x002452    program     static /storage/PicStuff/RFSupply/languages/languages_strings.c
             __string_115   0x00245b    program     static /storage/PicStuff/RFSupply/languages/languages_strings.c
             __string_114   0x002468    program     static /storage/PicStuff/RFSupply/languages/languages_strings.c
             __string_113   0x002474    program     static /storage/PicStuff/RFSupply/languages/languages_strings.c
             __string_112   0x002485    program     static /storage/PicStuff/RFSupply/languages/languages_strings.c
             __string_111   0x002496    program     static /storage/PicStuff/RFSupply/languages/languages_strings.c
             __string_110   0x0024a2    program     static /storage/PicStuff/RFSupply/languages/languages_strings.c
             __string_109   0x0024b1    program     static /storage/PicStuff/RFSupply/languages/languages_strings.c
             __string_108   0x0024c2    program     static /storage/PicStuff/RFSupply/languages/languages_strings.c
             __string_107   0x0024ca    program     static /storage/PicStuff/RFSupply/languages/languages_strings.c
             __string_106   0x0024d4    program     static /storage/PicStuff/RFSupply/languages/languages_strings.c
             __string_105   0x0024df    program     static /storage/PicStuff/RFSupply/languages/languages_strings.c
             __string_104   0x0024e7    program     static /storage/PicStuff/RFSupply/languages/languages_strings.c
             __string_103   0x0024f0    program     static /storage/PicStuff/RFSupply/languages/languages_strings.c
             __string_102   0x0024fd    program     static /storage/PicStuff/RFSupply/languages/languages_strings.c
             __string_101   0x002504    program     static /storage/PicStuff/RFSupply/languages/languages_strings.c
             __string_100   0x00250b    program     static /storage/PicStuff/RFSupply/languages/languages_strings.c
              __string_99   0x002512    program     static /storage/PicStuff/RFSupply/languages/languages_strings.c
              __string_98   0x002519    program     static /storage/PicStuff/RFSupply/languages/languages_strings.c
              __string_97   0x002520    program     static /storage/PicStuff/RFSupply/languages/languages_strings.c
              __string_96   0x002527    program     static /storage/PicStuff/RFSupply/languages/languages_strings.c
              __string_95   0x00252e    program     static /storage/PicStuff/RFSupply/languages/languages_strings.c
              __string_94   0x002535    program     static /storage/PicStuff/RFSupply/languages/languages_strings.c
              __string_93   0x00253c    program     static /storage/PicStuff/RFSupply/languages/languages_strings.c
              __string_92   0x002543    program     static /storage/PicStuff/RFSupply/languages/languages_strings.c
              __string_91   0x00254a    program     static /storage/PicStuff/RFSupply/languages/languages_strings.c
              __string_90   0x002551    program     static /storage/PicStuff/RFSupply/languages/languages_strings.c
              __string_89   0x00255a    program     static /storage/PicStuff/RFSupply/languages/languages_strings.c
              __string_88   0x002561    program     static /storage/PicStuff/RFSupply/languages/languages_strings.c
              __string_87   0x00256a    program     static /storage/PicStuff/RFSupply/languages/languages_strings.c
              __string_86   0x002573    program     static /storage/PicStuff/RFSupply/languages/languages_strings.c
              __string_85   0x00257e    program     static /storage/PicStuff/RFSupply/languages/languages_strings.c
              __string_84   0x002584    program     static /storage/PicStuff/RFSupply/languages/languages_strings.c
              __string_83   0x00258a    program     static /storage/PicStuff/RFSupply/languages/languages_strings.c
              __string_82   0x002597    program     static /storage/PicStuff/RFSupply/languages/languages_strings.c
              __string_81   0x0025a3    program     static /storage/PicStuff/RFSupply/languages/languages_strings.c
              __string_80   0x0025af    program     static /storage/PicStuff/RFSupply/languages/languages_strings.c
              __string_79   0x0025bb    program     static /storage/PicStuff/RFSupply/languages/languages_strings.c
              __string_78   0x0025c6    program     static /storage/PicStuff/RFSupply/languages/languages_strings.c
              __string_77   0x0025d0    program     static /storage/PicStuff/RFSupply/languages/languages_strings.c
              __string_76   0x0025da    program     static /storage/PicStuff/RFSupply/languages/languages_strings.c
              __string_75   0x0025e8    program     static /storage/PicStuff/RFSupply/languages/languages_strings.c
              __string_74   0x0025f3    program     static /storage/PicStuff/RFSupply/languages/languages_strings.c
              __string_73   0x002601    program     static /storage/PicStuff/RFSupply/languages/languages_strings.c
              __string_72   0x00260d    program     static /storage/PicStuff/RFSupply/languages/languages_strings.c
              __string_71   0x002617    program     static /storage/PicStuff/RFSupply/languages/languages_strings.c
              __string_70   0x002628    program     static /storage/PicStuff/RFSupply/languages/languages_strings.c
              __string_69   0x002639    program     static /storage/PicStuff/RFSupply/languages/languages_strings.c
              __string_68   0x002640    program     static /storage/PicStuff/RFSupply/languages/languages_strings.c
              __string_67   0x002646    program     static /storage/PicStuff/RFSupply/languages/languages_strings.c
              __string_66   0x00264b    program     static /storage/PicStuff/RFSupply/languages/languages_strings.c
              __string_65   0x002652    program     static /storage/PicStuff/RFSupply/languages/languages_strings.c
              __string_64   0x00265a    program     static /storage/PicStuff/RFSupply/languages/languages_strings.c
              __string_63   0x00266b    program     static /storage/PicStuff/RFSupply/languages/languages_strings.c
              __string_62   0x00267c    program     static /storage/PicStuff/RFSupply/languages/languages_strings.c
              __string_61   0x00268d    program     static /storage/PicStuff/RFSupply/languages/languages_strings.c
              __string_60   0x00269e    program     static /storage/PicStuff/RFSupply/languages/languages_strings.c
              __string_59   0x0026a5    program     static /storage/PicStuff/RFSupply/languages/languages_strings.c
              __string_58   0x0026ac    program     static /storage/PicStuff/RFSupply/languages/languages_strings.c
              __string_57   0x0026bc    program     static /storage/PicStuff/RFSupply/languages/languages_strings.c
              __string_56   0x0026cd    program     static /storage/PicStuff/RFSupply/languages/languages_strings.c
              __string_55   0x0026dd    program     static /storage/PicStuff/RFSupply/languages/languages_strings.c
              __string_54   0x0026eb    program     static /storage/PicStuff/RFSupply/languages/languages_strings.c
              __string_53   0x0026f8    program     static /storage/PicStuff/RFSupply/languages/languages_strings.c
              __string_52   0x00270b    program     static /storage/PicStuff/RFSupply/languages/languages_strings.c
              __string_51   0x002721    program     static /storage/PicStuff/RFSupply/languages/languages_strings.c
              __string_50   0x002737    program     static /storage/PicStuff/RFSupply/languages/languages_strings.c
              __string_49   0x002741    program     static /storage/PicStuff/RFSupply/languages/languages_strings.c
              __string_48   0x00274a    program     static /storage/PicStuff/RFSupply/languages/languages_strings.c
              __string_47   0x002759    program     static /storage/PicStuff/RFSupply/languages/languages_strings.c
              __string_46   0x002761    program     static /storage/PicStuff/RFSupply/languages/languages_strings.c
              __string_45   0x00276f    program     static /storage/PicStuff/RFSupply/languages/languages_strings.c
              __string_44   0x002779    program     static /storage/PicStuff/RFSupply/languages/languages_strings.c
              __string_43   0x002784    program     static /storage/PicStuff/RFSupply/languages/languages_strings.c
              __string_42   0x00279b    program     static /storage/PicStuff/RFSupply/languages/languages_strings.c
              __string_41   0x0027b2    program     static /storage/PicStuff/RFSupply/languages/languages_strings.c
              __string_40   0x0027c9    program     static /storage/PicStuff/RFSupply/languages/languages_strings.c
              __string_39   0x0027e0    program     static /storage/PicStuff/RFSupply/languages/languages_strings.c
              __string_38   0x0027eb    program     static /storage/PicStuff/RFSupply/languages/languages_strings.c
              __string_37   0x0027f1    program     static /storage/PicStuff/RFSupply/languages/languages_strings.c
              __string_36   0x0027f9    program     static /storage/PicStuff/RFSupply/languages/languages_strings.c
              __string_35   0x0027ff    program     static /storage/PicStuff/RFSupply/languages/languages_strings.c
              __string_34   0x002805    program     static /storage/PicStuff/RFSupply/languages/languages_strings.c
              __string_33   0x00280c    program     static /storage/PicStuff/RFSupply/languages/languages_strings.c
              __string_32   0x002810    program     static /storage/PicStuff/RFSupply/languages/languages_strings.c
              __string_31   0x002826    program     static /storage/PicStuff/RFSupply/languages/languages_strings.c
              __string_30   0x002836    program     static /storage/PicStuff/RFSupply/languages/languages_strings.c
              __string_29   0x00284c    program     static /storage/PicStuff/RFSupply/languages/languages_strings.c
              __string_28   0x002859    program     static /storage/PicStuff/RFSupply/languages/languages_strings.c
              __string_27   0x002868    program     static /storage/PicStuff/RFSupply/languages/languages_strings.c
              __string_26   0x002876    program     static /storage/PicStuff/RFSupply/languages/languages_strings.c
              __string_25   0x002881    program     static /storage/PicStuff/RFSupply/languages/languages_strings.c
              __string_24   0x00288f    program     static /storage/PicStuff/RFSupply/languages/languages_strings.c
              __string_23   0x00289c    program     static /storage/PicStuff/RFSupply/languages/languages_strings.c
              __string_22   0x0028b0    program     static /storage/PicStuff/RFSupply/languages/languages_strings.c
              __string_21   0x0028bc    program     static /storage/PicStuff/RFSupply/languages/languages_strings.c
              __string_20   0x0028cb    program     static /storage/PicStuff/RFSupply/languages/languages_strings.c
              __string_19   0x0028d7    program     static /storage/PicStuff/RFSupply/languages/languages_strings.c
              __string_18   0x0028ee    program     static /storage/PicStuff/RFSupply/languages/languages_strings.c
              __string_17   0x002903    program     static /storage/PicStuff/RFSupply/languages/languages_strings.c
              __string_16   0x002919    program     static /storage/PicStuff/RFSupply/languages/languages_strings.c
              __string_15   0x002938    program     static /storage/PicStuff/RFSupply/languages/languages_strings.c
              __string_14   0x002955    program     static /storage/PicStuff/RFSupply/languages/languages_strings.c
              __string_13   0x002975    program     static /storage/PicStuff/RFSupply/languages/languages_strings.c
              __string_12   0x002993    program     static /storage/PicStuff/RFSupply/languages/languages_strings.c
              __string_11   0x0029a1    program     static /storage/PicStuff/RFSupply/languages/languages_strings.c
              __string_10   0x0029b9    program     static /storage/PicStuff/RFSupply/languages/languages_strings.c
               __string_9   0x0029cf    program     static /storage/PicStuff/RFSupply/languages/languages_strings.c
               __string_8   0x0029de    program     static /storage/PicStuff/RFSupply/languages/languages_strings.c
               __string_7   0x0029ec    program     static /storage/PicStuff/RFSupply/languages/languages_strings.c
               __string_6   0x0029f7    program     static /storage/PicStuff/RFSupply/languages/languages_strings.c
               __string_5   0x002a00    program     static /storage/PicStuff/RFSupply/languages/languages_strings.c
               __string_4   0x002a11    program     static /storage/PicStuff/RFSupply/languages/languages_strings.c
               __string_3   0x002a24    program     static /storage/PicStuff/RFSupply/languages/languages_strings.c
               __string_2   0x002a35    program     static /storage/PicStuff/RFSupply/languages/languages_strings.c
               __string_1   0x002a4a    program     static /storage/PicStuff/RFSupply/languages/languages_strings.c
               __string_0   0x002a52    program     static /storage/PicStuff/RFSupply/languages/languages_strings.c
               __string_2   0x002a64    program     static /storage/PicStuff/RFSupply/lcd/lcd.c
               __string_1   0x002a6d    program     static /storage/PicStuff/RFSupply/lcd/lcd.c
               __string_0   0x002a7e    program     static /storage/PicStuff/RFSupply/lcd/lcd.c
              __string_16   0x002a8f    program     static /storage/PicStuff/RFSupply/logger/logger.c
              __string_15   0x002ad2    program     static /storage/PicStuff/RFSupply/logger/logger.c
              __string_14   0x002adc    program     static /storage/PicStuff/RFSupply/logger/logger.c
              __string_13   0x002ae4    program     static /storage/PicStuff/RFSupply/logger/logger.c
              __string_12   0x002ae6    program     static /storage/PicStuff/RFSupply/logger/logger.c
              __string_11   0x002ae8    program     static /storage/PicStuff/RFSupply/logger/logger.c
              __string_10   0x002aeb    program     static /storage/PicStuff/RFSupply/logger/logger.c
               __string_9   0x002aee    program     static /storage/PicStuff/RFSupply/logger/logger.c
               __string_8   0x002af2    program     static /storage/PicStuff/RFSupply/logger/logger.c
               __string_7   0x002af6    program     static /storage/PicStuff/RFSupply/logger/logger.c
               __string_6   0x002af9    program     static /storage/PicStuff/RFSupply/logger/logger.c
               __string_5   0x002b00    program     static /storage/PicStuff/RFSupply/logger/logger.c
               __string_4   0x002b02    program     static /storage/PicStuff/RFSupply/logger/logger.c
               __string_3   0x002b0c    program     static /storage/PicStuff/RFSupply/logger/logger.c
               __string_2   0x002b15    program     static /storage/PicStuff/RFSupply/logger/logger.c
               __string_1   0x002b1a    program     static /storage/PicStuff/RFSupply/logger/logger.c
               __string_0   0x002b1f    program     static /storage/PicStuff/RFSupply/logger/logger.c
              __string_10   0x002b22    program     static /storage/PicStuff/RFSupply/uart/uart.c
               __string_9   0x002b29    program     static /storage/PicStuff/RFSupply/uart/uart.c
               __string_8   0x002b2f    program     static /storage/PicStuff/RFSupply/uart/uart.c
               __string_7   0x002b35    program     static /storage/PicStuff/RFSupply/uart/uart.c
               __string_6   0x002b3b    program     static /storage/PicStuff/RFSupply/uart/uart.c
               __string_5   0x002b41    program     static /storage/PicStuff/RFSupply/uart/uart.c
               __string_4   0x002b47    program     static /storage/PicStuff/RFSupply/uart/uart.c
               __string_3   0x002b4d    program     static /storage/PicStuff/RFSupply/uart/uart.c
               __string_2   0x002b52    program     static /storage/PicStuff/RFSupply/uart/uart.c
               __string_1   0x002b57    program     static /storage/PicStuff/RFSupply/uart/uart.c
               __string_0   0x002b5c    program     static /storage/PicStuff/RFSupply/uart/uart.c
          lcd_delay_short   0x002b62    program     extern /storage/PicStuff/RFSupply/lcd/lcd.c
          ___for_lbl00003   0x002b68    program     static                          
          ___for_lbl00001   0x002b76    program     static                          
       ___return_lbl00000   0x002b80    program     static                          
          ___for_lbl00002   0x002b80    program     static                          
           lcd_delay_long   0x002b82    program     extern /storage/PicStuff/RFSupply/lcd/lcd.c
          ___for_lbl00007   0x002b88    program     static                          
          ___for_lbl00005   0x002b96    program     static                          
          ___for_lbl00006   0x002ba0    program     static                          
       ___return_lbl00004   0x002ba0    program     static                          
    lcd_write_data_single   0x002ba2    program     extern /storage/PicStuff/RFSupply/lcd/lcd.c
 lcd_write_command_single   0x002bd4    program     extern /storage/PicStuff/RFSupply/lcd/lcd.c
                 lcd_init   0x002c06    program     extern /storage/PicStuff/RFSupply/lcd/lcd.c
        ___while_lbl00011   0x002c16    program     static                          
        ___while_lbl00012   0x002c40    program     static                          
          ___for_lbl00015   0x002ca6    program     static                          
          ___for_lbl00013   0x002cc0    program     static                          
          ___for_lbl00014   0x002cc6    program     static                          
       ___return_lbl00010   0x002cdc    program     static                          
         lcd_write_string   0x002cde    program     extern /storage/PicStuff/RFSupply/lcd/lcd.c
               lcd_moveto   0x002d1c    program     extern /storage/PicStuff/RFSupply/lcd/lcd.c
      lcd_write_string_at   0x002d48    program     extern /storage/PicStuff/RFSupply/lcd/lcd.c
        lcd_write_line_at   0x002d98    program     extern /storage/PicStuff/RFSupply/lcd/lcd.c
   lcd_write_tr_string_at   0x002e1a    program     extern /storage/PicStuff/RFSupply/lcd/lcd.c
     lcd_write_tr_line_at   0x002e9a    program     extern /storage/PicStuff/RFSupply/lcd/lcd.c
    lcd_write_line_ram_at   0x002f4c    program     extern /storage/PicStuff/RFSupply/lcd/lcd.c
        lcd_write_char_at   0x002fca    program     extern /storage/PicStuff/RFSupply/lcd/lcd.c
        lcd_draw_bargraph   0x002ff6    program     extern /storage/PicStuff/RFSupply/lcd/lcd.c
            lcd_write_num   0x00313e    program     extern /storage/PicStuff/RFSupply/lcd/lcd.c
           lcd_write_dnum   0x003262    program     extern /storage/PicStuff/RFSupply/lcd/lcd.c
           lcd_write_vnum   0x003362    program     extern /storage/PicStuff/RFSupply/lcd/lcd.c
            lcd_put_digit   0x00340c    program     extern /storage/PicStuff/RFSupply/lcd/lcd.c
   lcd_write_longnum_line   0x00344e    program     extern /storage/PicStuff/RFSupply/lcd/lcd.c
      lcd_upload_ramglyph   0x003706    program     extern /storage/PicStuff/RFSupply/lcd/lcd.c
 lcd_upload_ramglyph_line   0x003808    program     extern /storage/PicStuff/RFSupply/lcd/lcd.c
lcd_upload_infoicon_ticker   0x003840    program     extern /storage/PicStuff/RFSupply/lcd/lcd.c
      lcd_write_time_line   0x003940    program     extern /storage/PicStuff/RFSupply/lcd/lcd.c
       power_manager_init   0x003a0a    program     extern /storage/PicStuff/RFSupply/power_manager/power_manager.c
  power_manager_reset_max   0x003a1c    program     extern /storage/PicStuff/RFSupply/power_manager/power_manager.c
      power_manager_reset   0x003a30    program     extern /storage/PicStuff/RFSupply/power_manager/power_manager.c
 power_manager_init_state   0x003a6a    program     extern /storage/PicStuff/RFSupply/power_manager/power_manager.c
    power_manager_process   0x003ab6    program     extern /storage/PicStuff/RFSupply/power_manager/power_manager.c
  power_manager_set_state   0x0042a2    program     extern /storage/PicStuff/RFSupply/power_manager/power_manager.c
  power_manager_get_state   0x004314    program     extern /storage/PicStuff/RFSupply/power_manager/power_manager.c
power_manager_get_state_string   0x00431c    program     extern /storage/PicStuff/RFSupply/power_manager/power_manager.c
 power_manager_set_config   0x00444c    program     extern /storage/PicStuff/RFSupply/power_manager/power_manager.c
power_manager_set_sleeptime   0x004462    program     extern /storage/PicStuff/RFSupply/power_manager/power_manager.c
power_manager_get_state_seconds   0x00447e    program     extern /storage/PicStuff/RFSupply/power_manager/power_manager.c
              logger_init   0x004492    program     extern /storage/PicStuff/RFSupply/logger/logger.c
        logger_set_config   0x0044a2    program     extern /storage/PicStuff/RFSupply/logger/logger.c
     logger_print_version   0x0044b8    program     extern /storage/PicStuff/RFSupply/logger/logger.c
  logger_print_twostrings   0x00455c    program     extern /storage/PicStuff/RFSupply/logger/logger.c
   logger_print_start_msg   0x0045f8    program     extern /storage/PicStuff/RFSupply/logger/logger.c
  logger_print_module_msg   0x004640    program     extern /storage/PicStuff/RFSupply/logger/logger.c
logger_print_module_msg_val   0x00468e    program     extern /storage/PicStuff/RFSupply/logger/logger.c
logger_print_module_msg_stringval   0x00472a    program     extern /storage/PicStuff/RFSupply/logger/logger.c
logger_print_module_msg_ramval   0x00479c    program     extern /storage/PicStuff/RFSupply/logger/logger.c
logger_print_timed_change_msg   0x00480e    program     extern /storage/PicStuff/RFSupply/logger/logger.c
logger_print_elapsed_seconds   0x004900    program     extern /storage/PicStuff/RFSupply/logger/logger.c
      logger_print_header   0x00495a    program     extern /storage/PicStuff/RFSupply/logger/logger.c
      logger_print_params   0x004998    program     extern /storage/PicStuff/RFSupply/logger/logger.c
          rf_manager_init   0x004d46    program     extern /storage/PicStuff/RFSupply/rf_manager/rf_manager.c
      rf_manager_set_mode   0x004d88    program     extern /storage/PicStuff/RFSupply/rf_manager/rf_manager.c
      rf_manager_get_mode   0x004e06    program     extern /storage/PicStuff/RFSupply/rf_manager/rf_manager.c
rf_manager_get_mode_string   0x004e0c    program     extern /storage/PicStuff/RFSupply/rf_manager/rf_manager.c
     rf_manager_add_delta   0x004e54    program     extern /storage/PicStuff/RFSupply/rf_manager/rf_manager.c
   rf_manager_store_delta   0x004ff6    program     extern /storage/PicStuff/RFSupply/rf_manager/rf_manager.c
   rf_manager_clear_delta   0x005008    program     extern /storage/PicStuff/RFSupply/rf_manager/rf_manager.c
   rf_manager_get_reading   0x005012    program     extern /storage/PicStuff/RFSupply/rf_manager/rf_manager.c
     rf_manager_calc_data   0x005152    program     extern /storage/PicStuff/RFSupply/rf_manager/rf_manager.c
       config_memory_init   0x00552c    program     extern /storage/PicStuff/RFSupply/config_manager/config_memory.c
config_memory_default_main_config   0x005586    program     extern /storage/PicStuff/RFSupply/config_manager/config_memory.c
config_memory_load_main_config   0x0055ce    program     extern /storage/PicStuff/RFSupply/config_manager/config_memory.c
config_memory_save_main_config   0x005690    program     extern /storage/PicStuff/RFSupply/config_manager/config_memory.c
config_memory_check_config   0x0056f2    program     extern /storage/PicStuff/RFSupply/config_manager/config_memory.c
   config_memory_get_name   0x005766    program     extern /storage/PicStuff/RFSupply/config_manager/config_memory.c
       config_memory_swap   0x005808    program     extern /storage/PicStuff/RFSupply/config_manager/config_memory.c
config_memory_default_config   0x0058ae    program     extern /storage/PicStuff/RFSupply/config_manager/config_memory.c
config_memory_load_config   0x0059f6    program     extern /storage/PicStuff/RFSupply/config_manager/config_memory.c
config_memory_save_config   0x005afa    program     extern /storage/PicStuff/RFSupply/config_manager/config_memory.c
         infodisplay_init   0x005ba8    program     extern /storage/PicStuff/RFSupply/infodisplay/infodisplay.c
        infodisplay_reset   0x005bb0    program     extern /storage/PicStuff/RFSupply/infodisplay/infodisplay.c
 infodisplay_show_version   0x005c30    program     extern /storage/PicStuff/RFSupply/infodisplay/infodisplay.c
infodisplay_show_powericon   0x005ca4    program     extern /storage/PicStuff/RFSupply/infodisplay/infodisplay.c
infodisplay_update_powericon   0x005d10    program     extern /storage/PicStuff/RFSupply/infodisplay/infodisplay.c
infodisplay_update_powericon_tick   0x005d62    program     extern /storage/PicStuff/RFSupply/infodisplay/infodisplay.c
         infodisplay_show   0x005d9a    program     extern /storage/PicStuff/RFSupply/infodisplay/infodisplay.c
                uart_init   0x0060dc    program     extern /storage/PicStuff/RFSupply/uart/uart.c
          ___for_lbl00003   0x0060fc    program     static                          
               __tmplbl_0   0x006114    program     static                          
          ___for_lbl00001   0x006118    program     static                          
          ___for_lbl00002   0x00612c    program     static                          
       ___return_lbl00000   0x006130    program     static                          
        uart_set_baudrate   0x006144    program     extern /storage/PicStuff/RFSupply/uart/uart.c
       uart_print_longnum   0x0061c6    program     extern /storage/PicStuff/RFSupply/uart/uart.c
uart_print_seconds_as_time   0x006464    program     extern /storage/PicStuff/RFSupply/uart/uart.c
                time_init   0x00651a    program     extern /storage/PicStuff/RFSupply/time/time.c
         time_reset_ticks   0x00653c    program     extern /storage/PicStuff/RFSupply/time/time.c
         time_get_seconds   0x006552    program     extern /storage/PicStuff/RFSupply/time/time.c
   time_get_delta_seconds   0x0065d8    program     extern /storage/PicStuff/RFSupply/time/time.c
time_get_reset_delta_seconds   0x006676    program     extern /storage/PicStuff/RFSupply/time/time.c
           time_get_ticks   0x006744    program     extern /storage/PicStuff/RFSupply/time/time.c
     time_get_delta_ticks   0x006794    program     extern /storage/PicStuff/RFSupply/time/time.c
time_get_reset_delta_ticks   0x0067fc    program     extern /storage/PicStuff/RFSupply/time/time.c
           time_interrupt   0x006894    program     extern /storage/PicStuff/RFSupply/time/time.c
               menu_start   0x00694a    program     extern /storage/PicStuff/RFSupply/menu/menu.c
              menu_return   0x0069b0    program     extern /storage/PicStuff/RFSupply/menu/menu.c
                menu_exit   0x0069ca    program     extern /storage/PicStuff/RFSupply/menu/menu.c
           menu_show_name   0x006a30    program     extern /storage/PicStuff/RFSupply/menu/menu.c
          menu_show_entry   0x006a8a    program     extern /storage/PicStuff/RFSupply/menu/menu.c
                menu_exec   0x006b08    program     extern /storage/PicStuff/RFSupply/menu/menu.c
           backlight_init   0x006cf8    program     extern /storage/PicStuff/RFSupply/lcd/backlight.c
     backlight_enter_temp   0x006d22    program     extern /storage/PicStuff/RFSupply/lcd/backlight.c
     backlight_leave_temp   0x006d34    program     extern /storage/PicStuff/RFSupply/lcd/backlight.c
            backlight_set   0x006d40    program     extern /storage/PicStuff/RFSupply/lcd/backlight.c
           backlight_mode   0x006d6a    program     extern /storage/PicStuff/RFSupply/lcd/backlight.c
        backlight_process   0x006dc0    program     extern /storage/PicStuff/RFSupply/lcd/backlight.c
           backlight_fade   0x006f18    program     extern /storage/PicStuff/RFSupply/lcd/backlight.c
      backlight_set_pulse   0x006f5e    program     extern /storage/PicStuff/RFSupply/lcd/backlight.c
    backlight_start_pulse   0x006fa6    program     extern /storage/PicStuff/RFSupply/lcd/backlight.c
      backlight_set_flash   0x006fb2    program     extern /storage/PicStuff/RFSupply/lcd/backlight.c
    backlight_start_flash   0x007006    program     extern /storage/PicStuff/RFSupply/lcd/backlight.c
               strings_EN   0x007012    program     extern /storage/PicStuff/RFSupply/languages/strings_EN
               strings_DE   0x007170    program     extern /storage/PicStuff/RFSupply/languages/strings_DE
         language_entries   0x0072ce    program     extern /storage/PicStuff/RFSupply/languages/languages_strings.c
           uart_fifo_init   0x0072d2    program     extern /storage/PicStuff/RFSupply/uart/uart_fifo.c
        uart_fifo_putchar   0x007322    program     extern /storage/PicStuff/RFSupply/uart/uart_fifo.c
        ___while_lbl00005   0x00732a    program     static                          
        ___while_lbl00006   0x00733e    program     static                          
       ___return_lbl00004   0x007358    program     static                          
  uart_fifo_put_ramstring   0x007360    program     extern /storage/PicStuff/RFSupply/uart/uart_fifo.c
        ___while_lbl00008   0x007368    program     static                          
        ___while_lbl00010   0x007378    program     static                          
        ___while_lbl00011   0x00738c    program     static                          
        ___while_lbl00009   0x0073be    program     static                          
       ___return_lbl00007   0x0073be    program     static                          
  uart_fifo_put_romstring   0x0073c6    program     extern /storage/PicStuff/RFSupply/uart/uart_fifo.c
        ___while_lbl00013   0x0073ce    program     static                          
        ___while_lbl00015   0x0073e0    program     static                          
        ___while_lbl00016   0x0073f4    program     static                          
        ___while_lbl00014   0x007428    program     static                          
       ___return_lbl00012   0x007428    program     static                          
        uart_fifo_getchar   0x007430    program     extern /storage/PicStuff/RFSupply/uart/uart_fifo.c
   uart_fifo_num_rx_bytes   0x007458    program     extern /storage/PicStuff/RFSupply/uart/uart_fifo.c
  uart_fifo_get_rx_buffer   0x00745e    program     extern /storage/PicStuff/RFSupply/uart/uart_fifo.c
  uart_fifo_put_tx_buffer   0x0074fc    program     extern /storage/PicStuff/RFSupply/uart/uart_fifo.c
          ___for_lbl00034   0x007508    program     static                          
        ___while_lbl00032   0x007512    program     static                          
        ___while_lbl00033   0x007526    program     static                          
          ___for_lbl00030   0x007556    program     static                          
       ___return_lbl00029   0x00755c    program     static                          
          ___for_lbl00031   0x00755c    program     static                          
                reset_pic   0x007564    program     extern /storage/PicStuff/RFSupply/helpers/helpers.c
       ___return_lbl00000   0x007566    program     static                          
           empty_callback   0x007568    program     extern /storage/PicStuff/RFSupply/helpers/helpers.c
          seconds_to_time   0x00756a    program     extern /storage/PicStuff/RFSupply/helpers/helpers.c
               divmod_set   0x0075f4    program     extern /storage/PicStuff/RFSupply/helpers/helpers.c
     divmod_set_remainder   0x007634    program     extern /storage/PicStuff/RFSupply/helpers/helpers.c
     divmod_get_remainder   0x00765c    program     extern /storage/PicStuff/RFSupply/helpers/helpers.c
       divmod_set_divider   0x007670    program     extern /storage/PicStuff/RFSupply/helpers/helpers.c
       divmod_get_divider   0x007698    program     extern /storage/PicStuff/RFSupply/helpers/helpers.c
                   divmod   0x0076ac    program     extern /storage/PicStuff/RFSupply/helpers/helpers.c
    copy_romstring_to_ram   0x007700    program     extern /storage/PicStuff/RFSupply/helpers/helpers.c
         get_delta_ushort   0x007750    program     extern /storage/PicStuff/RFSupply/helpers/helpers.c
             encoder_init   0x0077d0    program     extern /storage/PicStuff/RFSupply/encoder/encoder.c
              encoder_get   0x00780c    program     extern /storage/PicStuff/RFSupply/encoder/encoder.c
            encoder_reset   0x007824    program     extern /storage/PicStuff/RFSupply/encoder/encoder.c
       encoder_get_button   0x00782e    program     extern /storage/PicStuff/RFSupply/encoder/encoder.c
     encoder_reset_button   0x007850    program     extern /storage/PicStuff/RFSupply/encoder/encoder.c
     encoder_clear_button   0x00786a    program     extern /storage/PicStuff/RFSupply/encoder/encoder.c
        encoder_reset_all   0x007878    program     extern /storage/PicStuff/RFSupply/encoder/encoder.c
          process_encoder   0x007896    program     extern /storage/PicStuff/RFSupply/encoder/encoder.c
    language_config_items   0x007a2e    program     extern /storage/PicStuff/RFSupply/config_manager/config_iteminfo.c
    baudrate_config_items   0x007a30    program     extern /storage/PicStuff/RFSupply/config_manager/config_iteminfo.c
      logger_config_items   0x007a3b    program     extern /storage/PicStuff/RFSupply/config_manager/config_iteminfo.c
        main_config_items   0x007a47    program     extern /storage/PicStuff/RFSupply/config_manager/config_iteminfo.c
         main_config_data   0x007a6f    program     extern /storage/PicStuff/RFSupply/config_manager/config_iteminfo.c
         pm_startup_items   0x007a79    program     extern /storage/PicStuff/RFSupply/config_manager/config_iteminfo.c
pm_heatup_parameter_items   0x007a81    program     extern /storage/PicStuff/RFSupply/config_manager/config_iteminfo.c
pm_heatup_endcondition_items   0x007a87    program     extern /storage/PicStuff/RFSupply/config_manager/config_iteminfo.c
pm_heatup_endcondition_parameter_items   0x007a8b    program     extern /storage/PicStuff/RFSupply/config_manager/config_iteminfo.c
            pm_idle_items   0x007aab    program     extern /storage/PicStuff/RFSupply/config_manager/config_iteminfo.c
   pm_sleep_options_items   0x007abb    program     extern /storage/PicStuff/RFSupply/config_manager/config_iteminfo.c
           pm_sleep_items   0x007abf    program     extern /storage/PicStuff/RFSupply/config_manager/config_iteminfo.c
pm_wakeup_parameter_items   0x007adf    program     extern /storage/PicStuff/RFSupply/config_manager/config_iteminfo.c
pm_wakeup_endcondition_items   0x007ae3    program     extern /storage/PicStuff/RFSupply/config_manager/config_iteminfo.c
pm_wakeup_endcondition_parameter_items   0x007ae7    program     extern /storage/PicStuff/RFSupply/config_manager/config_iteminfo.c
       pm_backlight_modes   0x007af7    program     extern /storage/PicStuff/RFSupply/config_manager/config_iteminfo.c
pm_backlight_constant_items   0x007afd    program     extern /storage/PicStuff/RFSupply/config_manager/config_iteminfo.c
 pm_backlight_pulse_items   0x007b05    program     extern /storage/PicStuff/RFSupply/config_manager/config_iteminfo.c
 pm_backlight_flash_items   0x007b1d    program     extern /storage/PicStuff/RFSupply/config_manager/config_iteminfo.c
          pm_config_items   0x007b3d    program     extern /storage/PicStuff/RFSupply/config_manager/config_iteminfo.c
       pm_editconfig_data   0x007be7    program     extern /storage/PicStuff/RFSupply/config_manager/config_iteminfo.c
       pm_saveconfig_data   0x007bf1    program     extern /storage/PicStuff/RFSupply/config_manager/config_iteminfo.c
       pm_loadconfig_data   0x007bfb    program     extern /storage/PicStuff/RFSupply/config_manager/config_iteminfo.c
         eeprom_read_byte   0x007c06    program     extern /storage/PicStuff/RFSupply/eeprom/eeprom.c
        eeprom_read_block   0x007c38    program     extern /storage/PicStuff/RFSupply/eeprom/eeprom.c
        eeprom_write_byte   0x007caa    program     extern /storage/PicStuff/RFSupply/eeprom/eeprom.c
         ___else_lbl00007   0x007cbe    program     static                          
           ___if_lbl00006   0x007cc2    program     static                          
           ___if_lbl00008   0x007cf6    program     static                          
        ___while_lbl00009   0x007cf8    program     static                          
       ___return_lbl00005   0x007d00    program     static                          
        ___while_lbl00010   0x007d00    program     static                          
       eeprom_write_block   0x007d08    program     extern /storage/PicStuff/RFSupply/eeprom/eeprom.c
         ___else_lbl00013   0x007d1c    program     static                          
           ___if_lbl00012   0x007d20    program     static                          
          ___for_lbl00019   0x007d32    program     static                          
           ___if_lbl00016   0x007d8a    program     static                          
        ___while_lbl00017   0x007d8c    program     static                          
          ___for_lbl00014   0x007d94    program     static                          
        ___while_lbl00018   0x007d94    program     static                          
       ___return_lbl00011   0x007d9e    program     static                          
          ___for_lbl00015   0x007d9e    program     static                          
                 adc_init   0x007da6    program     extern /storage/PicStuff/RFSupply/adc/adc.c
          adc_get_reading   0x007e44    program     extern /storage/PicStuff/RFSupply/adc/adc.c
      config_manager_init   0x007ed0    program     extern /storage/PicStuff/RFSupply/config_manager/config_manager.c
config_manager_load_main_config   0x007f1e    program     extern /storage/PicStuff/RFSupply/config_manager/config_manager.c
config_manager_load_config   0x007f5e    program     extern /storage/PicStuff/RFSupply/config_manager/config_manager.c
config_manager_activate_config   0x007fe2    program     extern /storage/PicStuff/RFSupply/config_manager/config_manager.c
             crc_set_seed   0x007ff0    program     extern /storage/PicStuff/RFSupply/crc/crc.c
                 crc_core   0x00800c    program     extern /storage/PicStuff/RFSupply/crc/crc.c
       ___return_lbl00001   0x00805a    program     static                          
           crc_calc_block   0x00805c    program     extern /storage/PicStuff/RFSupply/crc/crc.c
            crc_calc_byte   0x0080aa    program     extern /storage/PicStuff/RFSupply/crc/crc.c
         main_return_func   0x0080cc    program     extern /storage/PicStuff/RFSupply/main.c
          default_ui_func   0x0080e8    program     extern /storage/PicStuff/RFSupply/main.c
             modules_init   0x008110    program     extern /storage/PicStuff/RFSupply/main.c
                     main   0x00815c    program     extern /storage/PicStuff/RFSupply/main.c
           languages_init   0x0081a6    program     extern /storage/PicStuff/RFSupply/languages/languages.c
         languages_reload   0x0081b4    program     extern /storage/PicStuff/RFSupply/languages/languages.c
       languages_set_lang   0x0081be    program     extern /storage/PicStuff/RFSupply/languages/languages.c
       languages_get_lang   0x008246    program     extern /storage/PicStuff/RFSupply/languages/languages.c
                _do_cinit   0x00824e    program     extern C:\MCC18\v3_39\src\traditional\startup\c018i.c
                     test   0x008268    program     static                          
                copy_loop   0x0082c0    program     static                          
            copy_one_byte   0x0082c6    program     static                          
             done_copying   0x0082d4    program     static                          
       ___return_lbl00002   0x0082ea    program     static                          
                     done   0x0082ea    program     static                          
                 FXM1616S   0x0082ec    program     extern C:\MCC18\v3_39\src\traditional\math\fxm1616s.asm
               TSIGN1616A   0x008338    program     static C:\MCC18\v3_39\src\traditional\math\fxm1616s.asm
                 FXM1616U   0x008346    program     extern C:\MCC18\v3_39\src\traditional\math\fxm1616u.asm
          tip_detect_init   0x008382    program     extern /storage/PicStuff/RFSupply/tip/tip_detect.c
       tip_detect_process   0x0083a8    program     extern /storage/PicStuff/RFSupply/tip/tip_detect.c
    tip_detect_get_status   0x0083ba    program     extern /storage/PicStuff/RFSupply/tip/tip_detect.c
                  FXM3232   0x008402    program     extern C:\MCC18\v3_39\src\traditional\math\fxm3232.c
       ___return_lbl00000   0x008470    program     static                          
                 FXD3232U   0x008472    program     extern C:\MCC18\v3_39\src\traditional\math\fxd3232u.c
                     loop   0x008480    program     static                          
                   _false   0x0084b4    program     static                          
       ___return_lbl00000   0x0084b8    program     static                          
                  blevels   0x0084ba    program     extern /storage/PicStuff/RFSupply/lcd/backlight.c
            hardware_init   0x0084fa    program     extern /storage/PicStuff/RFSupply/hardware/hardware.c
        ___while_lbl00001   0x0084fe    program     static                          
        ___while_lbl00002   0x008506    program     static                          
       ___return_lbl00000   0x008530    program     static                          
                baudrates   0x008532    program     extern /storage/PicStuff/RFSupply/uart/uart.c
                baudnames   0x008548    program     extern /storage/PicStuff/RFSupply/uart/uart.c
           powerinfoicons   0x00855e    program     extern /storage/PicStuff/RFSupply/infodisplay/infoicons.c
                tickerbar   0x00857e    program     extern /storage/PicStuff/RFSupply/infodisplay/infoicons.c
            __zero_memory   0x008588    program     extern C:\MCC18\v3_39\src\traditional\proc\p18F2620.asm
               zero_block   0x008596    program     static C:\MCC18\v3_39\src\traditional\proc\p18F2620.asm
                   loop_h   0x008596    program     static C:\MCC18\v3_39\src\traditional\proc\p18F2620.asm
                compare_l   0x00859e    program     static C:\MCC18\v3_39\src\traditional\proc\p18F2620.asm
                   loop_l   0x0085a0    program     static C:\MCC18\v3_39\src\traditional\proc\p18F2620.asm
        main_menu_entries   0x0085a8    program     extern /storage/PicStuff/RFSupply/menu/menudata.c
                main_menu   0x0085c0    program     extern /storage/PicStuff/RFSupply/menu/menudata.c
                 _startup   0x0085c8    program     extern C:\MCC18\v3_39\src\traditional\startup\c018i.c
                     loop   0x0085d8    program     static                          
       ___return_lbl00001   0x0085e2    program     static                          
           interrupt_init   0x0085e4    program     extern /storage/PicStuff/RFSupply/interrupt/interrupt.c
               __config_0   0x300001    program     static /storage/PicStuff/RFSupply/hardware/configbits.c
               __config_1   0x300002    program     static /storage/PicStuff/RFSupply/hardware/configbits.c
               __config_2   0x300003    program     static /storage/PicStuff/RFSupply/hardware/configbits.c
               __config_3   0x300005    program     static /storage/PicStuff/RFSupply/hardware/configbits.c
               __config_4   0x300006    program     static /storage/PicStuff/RFSupply/hardware/configbits.c
               __config_5   0x300008    program     static /storage/PicStuff/RFSupply/hardware/configbits.c
               __config_6   0x300009    program     static /storage/PicStuff/RFSupply/hardware/configbits.c
               __config_7   0x30000a    program     static /storage/PicStuff/RFSupply/hardware/configbits.c
               __config_8   0x30000b    program     static /storage/PicStuff/RFSupply/hardware/configbits.c
               __config_9   0x30000c    program     static /storage/PicStuff/RFSupply/hardware/configbits.c
              __config_10   0x30000d    program     static /storage/PicStuff/RFSupply/hardware/configbits.c
                        A   0x000000       data     static /storage/PicStuff/RFSupply/rf_manager/rf_manager.c
                        B   0x000004       data     static /storage/PicStuff/RFSupply/rf_manager/rf_manager.c
                      Rho   0x000008       data     static /storage/PicStuff/RFSupply/rf_manager/rf_manager.c
                   old_vf   0x00000a       data     static /storage/PicStuff/RFSupply/rf_manager/rf_manager.c
                   old_vr   0x00000c       data     static /storage/PicStuff/RFSupply/rf_manager/rf_manager.c
                  old_swr   0x00000e       data     static /storage/PicStuff/RFSupply/rf_manager/rf_manager.c
                  old_pwr   0x000010       data     static /storage/PicStuff/RFSupply/rf_manager/rf_manager.c
               old_supply   0x000012       data     static /storage/PicStuff/RFSupply/rf_manager/rf_manager.c
              power_delta   0x000014       data     static /storage/PicStuff/RFSupply/rf_manager/rf_manager.c
          old_power_delta   0x000016       data     static /storage/PicStuff/RFSupply/rf_manager/rf_manager.c
                     mode   0x000018       data     static /storage/PicStuff/RFSupply/rf_manager/rf_manager.c
                  rf_data   0x000019       data     static /storage/PicStuff/RFSupply/rf_manager/rf_manager.c
                     SIGN   0x000023       data     extern C:\MCC18\v3_39\src\traditional\math\cmath18.asm
            __FPFLAGSbits   0x000024       data     extern C:\MCC18\v3_39\src\traditional\math\cmath18.asm
                __FPFLAGS   0x000024       data     extern C:\MCC18\v3_39\src\traditional\math\cmath18.asm
                 __AARGB7   0x000025       data     extern C:\MCC18\v3_39\src\traditional\math\aarg.asm
                  __REMB3   0x000025       data     extern C:\MCC18\v3_39\src\traditional\math\aarg.asm
                  __REMB2   0x000026       data     extern C:\MCC18\v3_39\src\traditional\math\aarg.asm
                 __AARGB6   0x000026       data     extern C:\MCC18\v3_39\src\traditional\math\aarg.asm
                  __REMB1   0x000027       data     extern C:\MCC18\v3_39\src\traditional\math\aarg.asm
                 __AARGB5   0x000027       data     extern C:\MCC18\v3_39\src\traditional\math\aarg.asm
                  __REMB0   0x000028       data     extern C:\MCC18\v3_39\src\traditional\math\aarg.asm
                 __AARGB4   0x000028       data     extern C:\MCC18\v3_39\src\traditional\math\aarg.asm
                 __AARGB3   0x000029       data     extern C:\MCC18\v3_39\src\traditional\math\aarg.asm
                 __AARGB2   0x00002a       data     extern C:\MCC18\v3_39\src\traditional\math\aarg.asm
                 __AARGB1   0x00002b       data     extern C:\MCC18\v3_39\src\traditional\math\aarg.asm
                 __AARGB0   0x00002c       data     extern C:\MCC18\v3_39\src\traditional\math\aarg.asm
                   __AEXP   0x00002d       data     extern C:\MCC18\v3_39\src\traditional\math\aarg.asm
                 __BARGB3   0x00002e       data     extern C:\MCC18\v3_39\src\traditional\math\barg.asm
                 __BARGB2   0x00002f       data     extern C:\MCC18\v3_39\src\traditional\math\barg.asm
                 __BARGB1   0x000030       data     extern C:\MCC18\v3_39\src\traditional\math\barg.asm
                 __BARGB0   0x000031       data     extern C:\MCC18\v3_39\src\traditional\math\barg.asm
                   __BEXP   0x000032       data     extern C:\MCC18\v3_39\src\traditional\math\barg.asm
                 __TEMPB3   0x000033       data     extern C:\MCC18\v3_39\src\traditional\math\temparg.asm
                 __TEMPB2   0x000034       data     extern C:\MCC18\v3_39\src\traditional\math\temparg.asm
                 __TEMPB1   0x000035       data     extern C:\MCC18\v3_39\src\traditional\math\temparg.asm
                   __TEMP   0x000036       data     extern C:\MCC18\v3_39\src\traditional\math\temparg.asm
                 __TEMPB0   0x000036       data     extern C:\MCC18\v3_39\src\traditional\math\temparg.asm
              encoder_val   0x000037       data     static /storage/PicStuff/RFSupply/encoder/encoder.c
            state_encoder   0x000039       data     static /storage/PicStuff/RFSupply/encoder/encoder.c
        old_state_encoder   0x00003a       data     static /storage/PicStuff/RFSupply/encoder/encoder.c
             temp_encoder   0x00003b       data     static /storage/PicStuff/RFSupply/encoder/encoder.c
              encoder_cnt   0x00003c       data     static /storage/PicStuff/RFSupply/encoder/encoder.c
               button_cnt   0x00003d       data     static /storage/PicStuff/RFSupply/encoder/encoder.c
                    old_k   0x00003e       data     static /storage/PicStuff/RFSupply/encoder/encoder.c
                    cur_k   0x00003f       data     static /storage/PicStuff/RFSupply/encoder/encoder.c
            button_sample   0x000040       data     static /storage/PicStuff/RFSupply/encoder/encoder.c
             button_state   0x000041       data     static /storage/PicStuff/RFSupply/encoder/encoder.c
                   button   0x000042       data     static /storage/PicStuff/RFSupply/encoder/encoder.c
               ticker_cnt   0x000043       data     static /storage/PicStuff/RFSupply/time/time.c
                   mticks   0x000045       data     static /storage/PicStuff/RFSupply/time/time.c
               old_mticks   0x000049       data     static /storage/PicStuff/RFSupply/time/time.c
         backlight_config   0x00004d       data     static /storage/PicStuff/RFSupply/lcd/backlight.c
          backlight_level   0x00004e       data     static /storage/PicStuff/RFSupply/lcd/backlight.c
         backlight_target   0x00004f       data     static /storage/PicStuff/RFSupply/lcd/backlight.c
          backlight_count   0x000050       data     static /storage/PicStuff/RFSupply/lcd/backlight.c
          backlight_speed   0x000052       data     static /storage/PicStuff/RFSupply/lcd/backlight.c
        backlight_current   0x000054       data     static /storage/PicStuff/RFSupply/lcd/backlight.c
   backlight_is_temp_mode   0x000055       data     static /storage/PicStuff/RFSupply/lcd/backlight.c
        rx_fifo_write_pos   0x000056       data     extern /storage/PicStuff/RFSupply/uart/uart_fifo.c
         rx_fifo_read_pos   0x000057       data     extern /storage/PicStuff/RFSupply/uart/uart_fifo.c
             rx_fifo_fill   0x000058       data     extern /storage/PicStuff/RFSupply/uart/uart_fifo.c
        tx_fifo_write_pos   0x000059       data     extern /storage/PicStuff/RFSupply/uart/uart_fifo.c
         tx_fifo_read_pos   0x00005a       data     extern /storage/PicStuff/RFSupply/uart/uart_fifo.c
             tx_fifo_fill   0x00005b       data     extern /storage/PicStuff/RFSupply/uart/uart_fifo.c
              cur_rx_char   0x00005c       data     static /storage/PicStuff/RFSupply/interrupt/interrupt.c
                  skipper   0x00005d       data     static /storage/PicStuff/RFSupply/interrupt/interrupt.c
                      adc   0x00005e       data     static /storage/PicStuff/RFSupply/interrupt/interrupt.c
                irq_mutex   0x000060       data     extern /storage/PicStuff/RFSupply/interrupt/interrupt.c
                  __tmp_0   0x000061       data     static /storage/PicStuff/RFSupply/lcd/lcd.c
                  __tmp_0   0x000061       data     static /storage/PicStuff/RFSupply/logger/logger.c
                  __tmp_0   0x000061       data     static /storage/PicStuff/RFSupply/helpers/helpers.c
                  __tmp_0   0x000061       data     static /storage/PicStuff/RFSupply/encoder/encoder.c
                  __tmp_0   0x000061       data     static /storage/PicStuff/RFSupply/menu/menu.c
                  __tmp_0   0x000061       data     static /storage/PicStuff/RFSupply/power_manager/power_manager.c
                  __tmp_0   0x000061       data     static /storage/PicStuff/RFSupply/infodisplay/infodisplay.c
                  __tmp_0   0x000061       data     static /storage/PicStuff/RFSupply/uart/uart_fifo.c
                  __tmp_0   0x000061       data     static /storage/PicStuff/RFSupply/uart/uart.c
                  __tmp_0   0x000061       data     static /storage/PicStuff/RFSupply/config_manager/config_memory.c
                  __tmp_0   0x000061       data     static /storage/PicStuff/RFSupply/languages/languages.c
                  __tmp_0   0x000061       data     static /storage/PicStuff/RFSupply/rf_manager/rf_manager.c
                  __tmp_0   0x000061       data     static /storage/PicStuff/RFSupply/config_manager/config_editor.c
                  __tmp_0   0x000061       data     static /storage/PicStuff/RFSupply/eeprom/eeprom.c
                     CRCD   0x000066       data     static /storage/PicStuff/RFSupply/crc/crc.c
                      CRC   0x000067       data     static /storage/PicStuff/RFSupply/crc/crc.c
                  __tmp_1   0x000069       data     static /storage/PicStuff/RFSupply/interrupt/interrupt.c
               tip_status   0x00006b       data     static /storage/PicStuff/RFSupply/tip/tip_detect.c
   config_editor_callback   0x000080       data     static /storage/PicStuff/RFSupply/config_manager/config_editor.c
             config_stack   0x000082       data     static /storage/PicStuff/RFSupply/config_manager/config_editor.c
   config_selection_stack   0x0000a2       data     static /storage/PicStuff/RFSupply/config_manager/config_editor.c
        config_stackindex   0x0000b2       data     static /storage/PicStuff/RFSupply/config_manager/config_editor.c
              config_data   0x0000b3       data     static /storage/PicStuff/RFSupply/config_manager/config_editor.c
             config_items   0x0000b5       data     static /storage/PicStuff/RFSupply/config_manager/config_editor.c
   config_named_selection   0x0000b7       data     static /storage/PicStuff/RFSupply/config_manager/config_editor.c
config_named_selection_enum   0x0000b9       data     static /storage/PicStuff/RFSupply/config_manager/config_editor.c
        config_value_item   0x0000bb       data     static /storage/PicStuff/RFSupply/config_manager/config_editor.c
         config_selection   0x0000bd       data     static /storage/PicStuff/RFSupply/config_manager/config_editor.c
                uchar_var   0x0000bf       data     static /storage/PicStuff/RFSupply/config_manager/config_editor.c
                dummychar   0x0000c1       data     static /storage/PicStuff/RFSupply/config_manager/config_editor.c
               ushort_var   0x0000c2       data     static /storage/PicStuff/RFSupply/config_manager/config_editor.c
               dummyshort   0x0000c4       data     static /storage/PicStuff/RFSupply/config_manager/config_editor.c
              cur_encoder   0x0000c6       data     static /storage/PicStuff/RFSupply/config_manager/config_editor.c
       cur_encoder_button   0x0000c8       data     static /storage/PicStuff/RFSupply/config_manager/config_editor.c
                entry_val   0x0000c9       data     static /storage/PicStuff/RFSupply/config_manager/config_editor.c
         stringedit_state   0x0000cd       data     static /storage/PicStuff/RFSupply/config_manager/config_editor.c
           stringedit_pos   0x0000ce       data     static /storage/PicStuff/RFSupply/config_manager/config_editor.c
        stringedit_string   0x0000cf       data     static /storage/PicStuff/RFSupply/config_manager/config_editor.c
     config_editor_caller   0x0000ef       data     static /storage/PicStuff/RFSupply/config_manager/config_editor.c
                   tmpvar   0x0000f1       data     static /storage/PicStuff/RFSupply/config_manager/config_editor.c
                   tmpvar   0x0000f2       data     static /storage/PicStuff/RFSupply/config_manager/config_editor.c
                     prom   0x0000f3       data     static C:\MCC18\v3_39\src\traditional\startup\c018i.c
                curr_byte   0x0000f6       data     static C:\MCC18\v3_39\src\traditional\startup\c018i.c
               curr_entry   0x0000f8       data     static C:\MCC18\v3_39\src\traditional\startup\c018i.c
                 data_ptr   0x0000fa       data     static C:\MCC18\v3_39\src\traditional\startup\c018i.c
                      res   0x0000fd       data     static /storage/PicStuff/RFSupply/encoder/encoder.c
                     tval   0x0000ff       data     static /storage/PicStuff/RFSupply/encoder/encoder.c
                  rx_fifo   0x000100       data     extern /storage/PicStuff/RFSupply/uart/uart_fifo.c
                  tx_fifo   0x000180       data     extern /storage/PicStuff/RFSupply/uart/uart_fifo.c
              main_config   0x000200       data     extern /storage/PicStuff/RFSupply/config_manager/config_memory.c
            active_config   0x000208       data     extern /storage/PicStuff/RFSupply/config_manager/config_memory.c
              edit_config   0x000240       data     extern /storage/PicStuff/RFSupply/config_manager/config_memory.c
              cfg_mem_crc   0x000278       data     static /storage/PicStuff/RFSupply/config_manager/config_memory.c
                signature   0x00027a       data     static /storage/PicStuff/RFSupply/config_manager/config_memory.c
                 cfg_name   0x00027c       data     static /storage/PicStuff/RFSupply/config_manager/config_memory.c
                      cnt   0x00028d       data     static /storage/PicStuff/RFSupply/config_manager/config_memory.c
            adc_results_0   0x00028e       data     extern /storage/PicStuff/RFSupply/adc/adc.c
            adc_results_1   0x0002ae       data     extern /storage/PicStuff/RFSupply/adc/adc.c
            adc_results_2   0x0002ce       data     extern /storage/PicStuff/RFSupply/adc/adc.c
                  adc_idx   0x0002ee       data     extern /storage/PicStuff/RFSupply/adc/adc.c
                  adc_chn   0x0002ef       data     extern /storage/PicStuff/RFSupply/adc/adc.c
            adc_average_0   0x0002f0       data     extern /storage/PicStuff/RFSupply/adc/adc.c
            adc_average_1   0x0002f2       data     extern /storage/PicStuff/RFSupply/adc/adc.c
            adc_average_2   0x0002f4       data     extern /storage/PicStuff/RFSupply/adc/adc.c
                      res   0x0002f6       data     static /storage/PicStuff/RFSupply/adc/adc.c
                       ul   0x0002f8       data     static /storage/PicStuff/RFSupply/adc/adc.c
                      cnt   0x0002fc       data     static /storage/PicStuff/RFSupply/uart/uart_fifo.c
                   rxbyte   0x0002fd       data     static /storage/PicStuff/RFSupply/uart/uart_fifo.c
                num_bytes   0x0002fe       data     static /storage/PicStuff/RFSupply/uart/uart_fifo.c
           read_num_bytes   0x0002ff       data     static /storage/PicStuff/RFSupply/uart/uart_fifo.c
                time_data   0x000300       data     extern /storage/PicStuff/RFSupply/helpers/helpers.c
                      rem   0x000305       data     static /storage/PicStuff/RFSupply/helpers/helpers.c
                      div   0x000309       data     static /storage/PicStuff/RFSupply/helpers/helpers.c
                      res   0x00030d       data     static /storage/PicStuff/RFSupply/helpers/helpers.c
          current_strings   0x00030e       data     extern /storage/PicStuff/RFSupply/languages/languages.c
     current_menu_strings   0x000310       data     extern /storage/PicStuff/RFSupply/languages/languages.c
   current_config_strings   0x000312       data     extern /storage/PicStuff/RFSupply/languages/languages.c
             current_lang   0x000314       data     static /storage/PicStuff/RFSupply/languages/languages.c
               logger_cfg   0x000315       data     static /storage/PicStuff/RFSupply/logger/logger.c
             logger_ticks   0x000316       data     static /storage/PicStuff/RFSupply/logger/logger.c
                  old_gie   0x00031a       data     static /storage/PicStuff/RFSupply/eeprom/eeprom.c
                   ee_cnt   0x00031b       data     static /storage/PicStuff/RFSupply/eeprom/eeprom.c
               addr_short   0x00031d       data     static /storage/PicStuff/RFSupply/eeprom/eeprom.c
                        t   0x00031f       data     static /storage/PicStuff/RFSupply/rf_manager/rf_manager.c
                      res   0x000321       data     static /storage/PicStuff/RFSupply/rf_manager/rf_manager.c
                     cnt1   0x000323       data     static /storage/PicStuff/RFSupply/hardware/hardware.c
                 data_crc   0x000327       data     static /storage/PicStuff/RFSupply/config_manager/config_manager.c
                      cnt   0x000329       data     static /storage/PicStuff/RFSupply/config_manager/config_manager.c
                 baudrate   0x00032a       data     static /storage/PicStuff/RFSupply/uart/uart.c
                   uifunc   0x00032c       data     extern /storage/PicStuff/RFSupply/main.c
           old_tip_status   0x00032e       data     static /storage/PicStuff/RFSupply/tip/tip_detect.c
               menu_stack   0x000f00       data     static /storage/PicStuff/RFSupply/menu/menu.c
     menu_selection_stack   0x000f20       data     static /storage/PicStuff/RFSupply/menu/menu.c
          menu_stackindex   0x000f30       data     static /storage/PicStuff/RFSupply/menu/menu.c
             current_menu   0x000f31       data     static /storage/PicStuff/RFSupply/menu/menu.c
       current_menu_entry   0x000f33       data     static /storage/PicStuff/RFSupply/menu/menu.c
                 menufunc   0x000f34       data     static /storage/PicStuff/RFSupply/menu/menu.c
              menu_caller   0x000f36       data     static /storage/PicStuff/RFSupply/menu/menu.c
                      res   0x000f38       data     static /storage/PicStuff/RFSupply/lcd/lcd.c
                       lz   0x000f39       data     static /storage/PicStuff/RFSupply/lcd/lcd.c
                      cnt   0x000f3a       data     static /storage/PicStuff/RFSupply/lcd/lcd.c
                      cnt   0x000f3c       data     static /storage/PicStuff/RFSupply/lcd/lcd.c
                     cnt1   0x000f3e       data     static /storage/PicStuff/RFSupply/lcd/lcd.c
                     cnt2   0x000f42       data     static /storage/PicStuff/RFSupply/lcd/lcd.c
                      adr   0x000f43       data     static /storage/PicStuff/RFSupply/lcd/lcd.c
                       nc   0x000f44       data     static /storage/PicStuff/RFSupply/lcd/lcd.c
                      str   0x000f45       data     static /storage/PicStuff/RFSupply/lcd/lcd.c
                       nc   0x000f47       data     static /storage/PicStuff/RFSupply/lcd/lcd.c
                      str   0x000f48       data     static /storage/PicStuff/RFSupply/lcd/lcd.c
                       nc   0x000f4a       data     static /storage/PicStuff/RFSupply/lcd/lcd.c
                      pos   0x000f4b       data     static /storage/PicStuff/RFSupply/lcd/lcd.c
                    uchar   0x000f4c       data     static /storage/PicStuff/RFSupply/lcd/lcd.c
                remainder   0x000f4d       data     static /storage/PicStuff/RFSupply/lcd/lcd.c
                     fval   0x000f4e       data     static /storage/PicStuff/RFSupply/lcd/lcd.c
                        A   0x000f4f       data     static /storage/PicStuff/RFSupply/lcd/lcd.c
                      res   0x000f53       data     static /storage/PicStuff/RFSupply/lcd/lcd.c
                      pos   0x000f54       data     static /storage/PicStuff/RFSupply/lcd/lcd.c
                 pm_state   0x000f55       data     static /storage/PicStuff/RFSupply/power_manager/power_manager.c
             pm_old_state   0x000f56       data     static /storage/PicStuff/RFSupply/power_manager/power_manager.c
           pm_saved_state   0x000f57       data     static /storage/PicStuff/RFSupply/power_manager/power_manager.c
               pm_seconds   0x000f58       data     static /storage/PicStuff/RFSupply/power_manager/power_manager.c
                 pm_ticks   0x000f5c       data     static /storage/PicStuff/RFSupply/power_manager/power_manager.c
                  old_tip   0x000f5d       data     static /storage/PicStuff/RFSupply/power_manager/power_manager.c
                  cur_tip   0x000f5e       data     static /storage/PicStuff/RFSupply/power_manager/power_manager.c
                pm_button   0x000f5f       data     static /storage/PicStuff/RFSupply/power_manager/power_manager.c
                 max_rise   0x000f60       data     extern /storage/PicStuff/RFSupply/power_manager/power_manager.c
                 max_drop   0x000f62       data     extern /storage/PicStuff/RFSupply/power_manager/power_manager.c
             max_combined   0x000f64       data     extern /storage/PicStuff/RFSupply/power_manager/power_manager.c
                   enctab   0x000f66       data     static /storage/PicStuff/RFSupply/encoder/encoder.c
                     tbar   0x000f76       data     static /storage/PicStuff/RFSupply/infodisplay/infodisplay.c
                old_state   0x000f77       data     static /storage/PicStuff/RFSupply/infodisplay/infodisplay.c
                cur_state   0x000f78       data     static /storage/PicStuff/RFSupply/infodisplay/infodisplay.c
                 old_mode   0x000f79       data     static /storage/PicStuff/RFSupply/infodisplay/infodisplay.c
                 cur_mode   0x000f7a       data     static /storage/PicStuff/RFSupply/infodisplay/infodisplay.c
                  old_pwr   0x000f7b       data     static /storage/PicStuff/RFSupply/infodisplay/infodisplay.c
                  cur_pwr   0x000f7d       data     static /storage/PicStuff/RFSupply/infodisplay/infodisplay.c
               show_state   0x000f7f       data     static /storage/PicStuff/RFSupply/infodisplay/infodisplay.c
                    PORTA   0x000f80       data     extern C:\MCC18\v3_39\src\traditional\proc\p18F2620.asm
                PORTAbits   0x000f80       data     extern C:\MCC18\v3_39\src\traditional\proc\p18F2620.asm
                    PORTB   0x000f81       data     extern C:\MCC18\v3_39\src\traditional\proc\p18F2620.asm
                PORTBbits   0x000f81       data     extern C:\MCC18\v3_39\src\traditional\proc\p18F2620.asm
                    PORTC   0x000f82       data     extern C:\MCC18\v3_39\src\traditional\proc\p18F2620.asm
                PORTCbits   0x000f82       data     extern C:\MCC18\v3_39\src\traditional\proc\p18F2620.asm
                    PORTE   0x000f84       data     extern C:\MCC18\v3_39\src\traditional\proc\p18F2620.asm
                PORTEbits   0x000f84       data     extern C:\MCC18\v3_39\src\traditional\proc\p18F2620.asm
                     LATA   0x000f89       data     extern C:\MCC18\v3_39\src\traditional\proc\p18F2620.asm
                 LATAbits   0x000f89       data     extern C:\MCC18\v3_39\src\traditional\proc\p18F2620.asm
                 LATBbits   0x000f8a       data     extern C:\MCC18\v3_39\src\traditional\proc\p18F2620.asm
                     LATB   0x000f8a       data     extern C:\MCC18\v3_39\src\traditional\proc\p18F2620.asm
                 LATCbits   0x000f8b       data     extern C:\MCC18\v3_39\src\traditional\proc\p18F2620.asm
                     LATC   0x000f8b       data     extern C:\MCC18\v3_39\src\traditional\proc\p18F2620.asm
                    TRISA   0x000f92       data     extern C:\MCC18\v3_39\src\traditional\proc\p18F2620.asm
                     DDRA   0x000f92       data     extern C:\MCC18\v3_39\src\traditional\proc\p18F2620.asm
                 DDRAbits   0x000f92       data     extern C:\MCC18\v3_39\src\traditional\proc\p18F2620.asm
                TRISAbits   0x000f92       data     extern C:\MCC18\v3_39\src\traditional\proc\p18F2620.asm
                TRISBbits   0x000f93       data     extern C:\MCC18\v3_39\src\traditional\proc\p18F2620.asm
                    TRISB   0x000f93       data     extern C:\MCC18\v3_39\src\traditional\proc\p18F2620.asm
                     DDRB   0x000f93       data     extern C:\MCC18\v3_39\src\traditional\proc\p18F2620.asm
                 DDRBbits   0x000f93       data     extern C:\MCC18\v3_39\src\traditional\proc\p18F2620.asm
                 DDRCbits   0x000f94       data     extern C:\MCC18\v3_39\src\traditional\proc\p18F2620.asm
                TRISCbits   0x000f94       data     extern C:\MCC18\v3_39\src\traditional\proc\p18F2620.asm
                     DDRC   0x000f94       data     extern C:\MCC18\v3_39\src\traditional\proc\p18F2620.asm
                    TRISC   0x000f94       data     extern C:\MCC18\v3_39\src\traditional\proc\p18F2620.asm
              OSCTUNEbits   0x000f9b       data     extern C:\MCC18\v3_39\src\traditional\proc\p18F2620.asm
                  OSCTUNE   0x000f9b       data     extern C:\MCC18\v3_39\src\traditional\proc\p18F2620.asm
                     PIE1   0x000f9d       data     extern C:\MCC18\v3_39\src\traditional\proc\p18F2620.asm
                 PIE1bits   0x000f9d       data     extern C:\MCC18\v3_39\src\traditional\proc\p18F2620.asm
                 PIR1bits   0x000f9e       data     extern C:\MCC18\v3_39\src\traditional\proc\p18F2620.asm
                     PIR1   0x000f9e       data     extern C:\MCC18\v3_39\src\traditional\proc\p18F2620.asm
                     IPR1   0x000f9f       data     extern C:\MCC18\v3_39\src\traditional\proc\p18F2620.asm
                 IPR1bits   0x000f9f       data     extern C:\MCC18\v3_39\src\traditional\proc\p18F2620.asm
                     PIE2   0x000fa0       data     extern C:\MCC18\v3_39\src\traditional\proc\p18F2620.asm
                 PIE2bits   0x000fa0       data     extern C:\MCC18\v3_39\src\traditional\proc\p18F2620.asm
                 PIR2bits   0x000fa1       data     extern C:\MCC18\v3_39\src\traditional\proc\p18F2620.asm
                     PIR2   0x000fa1       data     extern C:\MCC18\v3_39\src\traditional\proc\p18F2620.asm
                     IPR2   0x000fa2       data     extern C:\MCC18\v3_39\src\traditional\proc\p18F2620.asm
                 IPR2bits   0x000fa2       data     extern C:\MCC18\v3_39\src\traditional\proc\p18F2620.asm
               EECON1bits   0x000fa6       data     extern C:\MCC18\v3_39\src\traditional\proc\p18F2620.asm
                   EECON1   0x000fa6       data     extern C:\MCC18\v3_39\src\traditional\proc\p18F2620.asm
                   EECON2   0x000fa7       data     extern C:\MCC18\v3_39\src\traditional\proc\p18F2620.asm
                   EEDATA   0x000fa8       data     extern C:\MCC18\v3_39\src\traditional\proc\p18F2620.asm
                    EEADR   0x000fa9       data     extern C:\MCC18\v3_39\src\traditional\proc\p18F2620.asm
                   EEADRH   0x000faa       data     extern C:\MCC18\v3_39\src\traditional\proc\p18F2620.asm
                RCSTAbits   0x000fab       data     extern C:\MCC18\v3_39\src\traditional\proc\p18F2620.asm
                    RCSTA   0x000fab       data     extern C:\MCC18\v3_39\src\traditional\proc\p18F2620.asm
                    TXSTA   0x000fac       data     extern C:\MCC18\v3_39\src\traditional\proc\p18F2620.asm
                TXSTAbits   0x000fac       data     extern C:\MCC18\v3_39\src\traditional\proc\p18F2620.asm
                    TXREG   0x000fad       data     extern C:\MCC18\v3_39\src\traditional\proc\p18F2620.asm
                    RCREG   0x000fae       data     extern C:\MCC18\v3_39\src\traditional\proc\p18F2620.asm
                    SPBRG   0x000faf       data     extern C:\MCC18\v3_39\src\traditional\proc\p18F2620.asm
                   SPBRGH   0x000fb0       data     extern C:\MCC18\v3_39\src\traditional\proc\p18F2620.asm
                T3CONbits   0x000fb1       data     extern C:\MCC18\v3_39\src\traditional\proc\p18F2620.asm
                    T3CON   0x000fb1       data     extern C:\MCC18\v3_39\src\traditional\proc\p18F2620.asm
                    TMR3L   0x000fb2       data     extern C:\MCC18\v3_39\src\traditional\proc\p18F2620.asm
                    TMR3H   0x000fb3       data     extern C:\MCC18\v3_39\src\traditional\proc\p18F2620.asm
                    CMCON   0x000fb4       data     extern C:\MCC18\v3_39\src\traditional\proc\p18F2620.asm
                CMCONbits   0x000fb4       data     extern C:\MCC18\v3_39\src\traditional\proc\p18F2620.asm
                   CVRCON   0x000fb5       data     extern C:\MCC18\v3_39\src\traditional\proc\p18F2620.asm
               CVRCONbits   0x000fb5       data     extern C:\MCC18\v3_39\src\traditional\proc\p18F2620.asm
                  ECCP1AS   0x000fb6       data     extern C:\MCC18\v3_39\src\traditional\proc\p18F2620.asm
                   ECCPAS   0x000fb6       data     extern C:\MCC18\v3_39\src\traditional\proc\p18F2620.asm
               ECCPASbits   0x000fb6       data     extern C:\MCC18\v3_39\src\traditional\proc\p18F2620.asm
              ECCP1ASbits   0x000fb6       data     extern C:\MCC18\v3_39\src\traditional\proc\p18F2620.asm
                 ECCP1DEL   0x000fb7       data     extern C:\MCC18\v3_39\src\traditional\proc\p18F2620.asm
             ECCP1DELbits   0x000fb7       data     extern C:\MCC18\v3_39\src\traditional\proc\p18F2620.asm
              PWM1CONbits   0x000fb7       data     extern C:\MCC18\v3_39\src\traditional\proc\p18F2620.asm
                  PWM1CON   0x000fb7       data     extern C:\MCC18\v3_39\src\traditional\proc\p18F2620.asm
              BAUDCONbits   0x000fb8       data     extern C:\MCC18\v3_39\src\traditional\proc\p18F2620.asm
                  BAUDCON   0x000fb8       data     extern C:\MCC18\v3_39\src\traditional\proc\p18F2620.asm
                  BAUDCTL   0x000fb8       data     extern C:\MCC18\v3_39\src\traditional\proc\p18F2620.asm
              BAUDCTLbits   0x000fb8       data     extern C:\MCC18\v3_39\src\traditional\proc\p18F2620.asm
              CCP2CONbits   0x000fba       data     extern C:\MCC18\v3_39\src\traditional\proc\p18F2620.asm
                  CCP2CON   0x000fba       data     extern C:\MCC18\v3_39\src\traditional\proc\p18F2620.asm
                    CCPR2   0x000fbb       data     extern C:\MCC18\v3_39\src\traditional\proc\p18F2620.asm
                   CCPR2L   0x000fbb       data     extern C:\MCC18\v3_39\src\traditional\proc\p18F2620.asm
                   CCPR2H   0x000fbc       data     extern C:\MCC18\v3_39\src\traditional\proc\p18F2620.asm
              CCP1CONbits   0x000fbd       data     extern C:\MCC18\v3_39\src\traditional\proc\p18F2620.asm
                  CCP1CON   0x000fbd       data     extern C:\MCC18\v3_39\src\traditional\proc\p18F2620.asm
                   CCPR1L   0x000fbe       data     extern C:\MCC18\v3_39\src\traditional\proc\p18F2620.asm
                    CCPR1   0x000fbe       data     extern C:\MCC18\v3_39\src\traditional\proc\p18F2620.asm
                   CCPR1H   0x000fbf       data     extern C:\MCC18\v3_39\src\traditional\proc\p18F2620.asm
                   ADCON2   0x000fc0       data     extern C:\MCC18\v3_39\src\traditional\proc\p18F2620.asm
               ADCON2bits   0x000fc0       data     extern C:\MCC18\v3_39\src\traditional\proc\p18F2620.asm
                   ADCON1   0x000fc1       data     extern C:\MCC18\v3_39\src\traditional\proc\p18F2620.asm
               ADCON1bits   0x000fc1       data     extern C:\MCC18\v3_39\src\traditional\proc\p18F2620.asm
               ADCON0bits   0x000fc2       data     extern C:\MCC18\v3_39\src\traditional\proc\p18F2620.asm
                   ADCON0   0x000fc2       data     extern C:\MCC18\v3_39\src\traditional\proc\p18F2620.asm
                   ADRESL   0x000fc3       data     extern C:\MCC18\v3_39\src\traditional\proc\p18F2620.asm
                    ADRES   0x000fc3       data     extern C:\MCC18\v3_39\src\traditional\proc\p18F2620.asm
                   ADRESH   0x000fc4       data     extern C:\MCC18\v3_39\src\traditional\proc\p18F2620.asm
              SSPCON2bits   0x000fc5       data     extern C:\MCC18\v3_39\src\traditional\proc\p18F2620.asm
                  SSPCON2   0x000fc5       data     extern C:\MCC18\v3_39\src\traditional\proc\p18F2620.asm
                  SSPCON1   0x000fc6       data     extern C:\MCC18\v3_39\src\traditional\proc\p18F2620.asm
              SSPCON1bits   0x000fc6       data     extern C:\MCC18\v3_39\src\traditional\proc\p18F2620.asm
              SSPSTATbits   0x000fc7       data     extern C:\MCC18\v3_39\src\traditional\proc\p18F2620.asm
                  SSPSTAT   0x000fc7       data     extern C:\MCC18\v3_39\src\traditional\proc\p18F2620.asm
                   SSPADD   0x000fc8       data     extern C:\MCC18\v3_39\src\traditional\proc\p18F2620.asm
                   SSPBUF   0x000fc9       data     extern C:\MCC18\v3_39\src\traditional\proc\p18F2620.asm
                    T2CON   0x000fca       data     extern C:\MCC18\v3_39\src\traditional\proc\p18F2620.asm
                T2CONbits   0x000fca       data     extern C:\MCC18\v3_39\src\traditional\proc\p18F2620.asm
                      PR2   0x000fcb       data     extern C:\MCC18\v3_39\src\traditional\proc\p18F2620.asm
                     TMR2   0x000fcc       data     extern C:\MCC18\v3_39\src\traditional\proc\p18F2620.asm
                    T1CON   0x000fcd       data     extern C:\MCC18\v3_39\src\traditional\proc\p18F2620.asm
                T1CONbits   0x000fcd       data     extern C:\MCC18\v3_39\src\traditional\proc\p18F2620.asm
                    TMR1L   0x000fce       data     extern C:\MCC18\v3_39\src\traditional\proc\p18F2620.asm
                    TMR1H   0x000fcf       data     extern C:\MCC18\v3_39\src\traditional\proc\p18F2620.asm
                 RCONbits   0x000fd0       data     extern C:\MCC18\v3_39\src\traditional\proc\p18F2620.asm
                     RCON   0x000fd0       data     extern C:\MCC18\v3_39\src\traditional\proc\p18F2620.asm
                   WDTCON   0x000fd1       data     extern C:\MCC18\v3_39\src\traditional\proc\p18F2620.asm
               WDTCONbits   0x000fd1       data     extern C:\MCC18\v3_39\src\traditional\proc\p18F2620.asm
               LVDCONbits   0x000fd2       data     extern C:\MCC18\v3_39\src\traditional\proc\p18F2620.asm
                   LVDCON   0x000fd2       data     extern C:\MCC18\v3_39\src\traditional\proc\p18F2620.asm
                  HLVDCON   0x000fd2       data     extern C:\MCC18\v3_39\src\traditional\proc\p18F2620.asm
              HLVDCONbits   0x000fd2       data     extern C:\MCC18\v3_39\src\traditional\proc\p18F2620.asm
                   OSCCON   0x000fd3       data     extern C:\MCC18\v3_39\src\traditional\proc\p18F2620.asm
               OSCCONbits   0x000fd3       data     extern C:\MCC18\v3_39\src\traditional\proc\p18F2620.asm
                    T0CON   0x000fd5       data     extern C:\MCC18\v3_39\src\traditional\proc\p18F2620.asm
                T0CONbits   0x000fd5       data     extern C:\MCC18\v3_39\src\traditional\proc\p18F2620.asm
                    TMR0L   0x000fd6       data     extern C:\MCC18\v3_39\src\traditional\proc\p18F2620.asm
                    TMR0H   0x000fd7       data     extern C:\MCC18\v3_39\src\traditional\proc\p18F2620.asm
               STATUSbits   0x000fd8       data     extern C:\MCC18\v3_39\src\traditional\proc\p18F2620.asm
                   STATUS   0x000fd8       data     extern C:\MCC18\v3_39\src\traditional\proc\p18F2620.asm
                    FSR2L   0x000fd9       data     extern C:\MCC18\v3_39\src\traditional\proc\p18F2620.asm
                     FSR2   0x000fd9       data     extern C:\MCC18\v3_39\src\traditional\proc\p18F2620.asm
                    FSR2H   0x000fda       data     extern C:\MCC18\v3_39\src\traditional\proc\p18F2620.asm
                   PLUSW2   0x000fdb       data     extern C:\MCC18\v3_39\src\traditional\proc\p18F2620.asm
                  PREINC2   0x000fdc       data     extern C:\MCC18\v3_39\src\traditional\proc\p18F2620.asm
                 POSTDEC2   0x000fdd       data     extern C:\MCC18\v3_39\src\traditional\proc\p18F2620.asm
                 POSTINC2   0x000fde       data     extern C:\MCC18\v3_39\src\traditional\proc\p18F2620.asm
                    INDF2   0x000fdf       data     extern C:\MCC18\v3_39\src\traditional\proc\p18F2620.asm
                      BSR   0x000fe0       data     extern C:\MCC18\v3_39\src\traditional\proc\p18F2620.asm
                    FSR1L   0x000fe1       data     extern C:\MCC18\v3_39\src\traditional\proc\p18F2620.asm
                     FSR1   0x000fe1       data     extern C:\MCC18\v3_39\src\traditional\proc\p18F2620.asm
                    FSR1H   0x000fe2       data     extern C:\MCC18\v3_39\src\traditional\proc\p18F2620.asm
                   PLUSW1   0x000fe3       data     extern C:\MCC18\v3_39\src\traditional\proc\p18F2620.asm
                  PREINC1   0x000fe4       data     extern C:\MCC18\v3_39\src\traditional\proc\p18F2620.asm
                 POSTDEC1   0x000fe5       data     extern C:\MCC18\v3_39\src\traditional\proc\p18F2620.asm
                 POSTINC1   0x000fe6       data     extern C:\MCC18\v3_39\src\traditional\proc\p18F2620.asm
                    INDF1   0x000fe7       data     extern C:\MCC18\v3_39\src\traditional\proc\p18F2620.asm
                        W   0x000fe8       data     extern C:\MCC18\v3_39\src\traditional\proc\p18F2620.asm
                     WREG   0x000fe8       data     extern C:\MCC18\v3_39\src\traditional\proc\p18F2620.asm
                     FSR0   0x000fe9       data     extern C:\MCC18\v3_39\src\traditional\proc\p18F2620.asm
                    FSR0L   0x000fe9       data     extern C:\MCC18\v3_39\src\traditional\proc\p18F2620.asm
                    FSR0H   0x000fea       data     extern C:\MCC18\v3_39\src\traditional\proc\p18F2620.asm
                   PLUSW0   0x000feb       data     extern C:\MCC18\v3_39\src\traditional\proc\p18F2620.asm
                  PREINC0   0x000fec       data     extern C:\MCC18\v3_39\src\traditional\proc\p18F2620.asm
                 POSTDEC0   0x000fed       data     extern C:\MCC18\v3_39\src\traditional\proc\p18F2620.asm
                 POSTINC0   0x000fee       data     extern C:\MCC18\v3_39\src\traditional\proc\p18F2620.asm
                    INDF0   0x000fef       data     extern C:\MCC18\v3_39\src\traditional\proc\p18F2620.asm
                  INTCON3   0x000ff0       data     extern C:\MCC18\v3_39\src\traditional\proc\p18F2620.asm
              INTCON3bits   0x000ff0       data     extern C:\MCC18\v3_39\src\traditional\proc\p18F2620.asm
              INTCON2bits   0x000ff1       data     extern C:\MCC18\v3_39\src\traditional\proc\p18F2620.asm
                  INTCON2   0x000ff1       data     extern C:\MCC18\v3_39\src\traditional\proc\p18F2620.asm
               INTCONbits   0x000ff2       data     extern C:\MCC18\v3_39\src\traditional\proc\p18F2620.asm
                   INTCON   0x000ff2       data     extern C:\MCC18\v3_39\src\traditional\proc\p18F2620.asm
                     PROD   0x000ff3       data     extern C:\MCC18\v3_39\src\traditional\proc\p18F2620.asm
                    PRODL   0x000ff3       data     extern C:\MCC18\v3_39\src\traditional\proc\p18F2620.asm
                    PRODH   0x000ff4       data     extern C:\MCC18\v3_39\src\traditional\proc\p18F2620.asm
                   TABLAT   0x000ff5       data     extern C:\MCC18\v3_39\src\traditional\proc\p18F2620.asm
                  TBLPTRL   0x000ff6       data     extern C:\MCC18\v3_39\src\traditional\proc\p18F2620.asm
                   TBLPTR   0x000ff6       data     extern C:\MCC18\v3_39\src\traditional\proc\p18F2620.asm
                  TBLPTRH   0x000ff7       data     extern C:\MCC18\v3_39\src\traditional\proc\p18F2620.asm
                  TBLPTRU   0x000ff8       data     extern C:\MCC18\v3_39\src\traditional\proc\p18F2620.asm
                      PCL   0x000ff9       data     extern C:\MCC18\v3_39\src\traditional\proc\p18F2620.asm
                       PC   0x000ff9       data     extern C:\MCC18\v3_39\src\traditional\proc\p18F2620.asm
                   PCLATH   0x000ffa       data     extern C:\MCC18\v3_39\src\traditional\proc\p18F2620.asm
                   PCLATU   0x000ffb       data     extern C:\MCC18\v3_39\src\traditional\proc\p18F2620.asm
               STKPTRbits   0x000ffc       data     extern C:\MCC18\v3_39\src\traditional\proc\p18F2620.asm
                   STKPTR   0x000ffc       data     extern C:\MCC18\v3_39\src\traditional\proc\p18F2620.asm
                      TOS   0x000ffd       data     extern C:\MCC18\v3_39\src\traditional\proc\p18F2620.asm
                     TOSL   0x000ffd       data     extern C:\MCC18\v3_39\src\traditional\proc\p18F2620.asm
                     TOSH   0x000ffe       data     extern C:\MCC18\v3_39\src\traditional\proc\p18F2620.asm
                     TOSU   0x000fff       data     extern C:\MCC18\v3_39\src\traditional\proc\p18F2620.asm


